Certificate:
    Data:
        Version: 3 (0x2)
        Serial Number: 1 (0x1)
    Signature Algorithm: sha1WithRSAEncryption
        Issuer: C=CN, ST=HB, L=WH, O=HUST, OU=changeme, CN=HUST CA/name=changeme/emailAddress=yuanjianye@126.com
        Validity
            Not Before: Aug  9 07:36:47 2014 GMT
            Not After : Aug  6 07:36:47 2024 GMT
        Subject: C=CN, ST=HB, L=WH, O=HUST, OU=changeme, CN=server/name=changeme/emailAddress=yuanjianye@126.com
        Subject Public Key Info:
            Public Key Algorithm: rsaEncryption
                Public-Key: (1024 bit)
                Modulus:
                    00:a1:64:06:0b:65:7b:4d:4f:28:81:ae:78:9e:9b:
                    ee:60:11:71:6a:8c:9c:1d:78:51:e1:15:d3:02:c8:
                    b1:16:90:57:46:df:11:12:0f:35:87:12:e5:ec:9b:
                    0b:e4:2e:5f:46:d6:d2:7f:53:55:73:7f:4e:4e:cc:
                    c3:d4:cf:f7:09:ae:ee:86:06:6a:c7:90:4c:47:10:
                    b4:04:30:89:23:4d:4b:59:6f:54:da:c6:37:c3:1e:
                    79:d1:e1:50:ab:65:c6:ea:82:fe:89:23:68:0b:94:
                    3a:bf:42:52:a8:cb:f1:68:69:57:56:99:73:64:95:
                    e1:e1:41:24:9c:2d:51:7b:33
                Exponent: 65537 (0x10001)
        X509v3 extensions:
            X509v3 Basic Constraints: 
                CA:FALSE
            Netscape Cert Type: 
                SSL Server
            Netscape Comment: 
                Easy-RSA Generated Server Certificate
            X509v3 Subject Key Identifier: 
                6B:D0:30:9F:12:8A:CB:11:45:C2:29:A3:01:E0:9E:11:62:5A:D4:AD
            X509v3 Authority Key Identifier: 
                keyid:A2:48:43:37:E2:5F:0D:70:8E:6F:62:44:3C:4B:9E:6C:6E:0E:41:DE
                DirName:/C=CN/ST=HB/L=WH/O=HUST/OU=changeme/CN=HUST CA/name=changeme/emailAddress=yuanjianye@126.com
                serial:D1:BC:DF:89:A0:04:DF:E6

            X509v3 Extended Key Usage: 
                TLS Web Server Authentication
            X509v3 Key Usage: 
                Digital Signature, Key Encipherment
    Signature Algorithm: sha1WithRSAEncryption
         5c:7a:dd:7b:fd:af:38:36:08:7d:7e:ce:be:30:72:2f:2e:4e:
         66:ae:6e:66:8e:b8:f7:6a:43:61:b9:45:14:0e:ca:45:d3:a3:
         02:2f:8c:c1:79:8d:29:4f:f6:62:59:5b:2b:95:79:c5:66:b7:
         33:db:6a:f2:4e:c6:14:5c:c6:6e:d0:00:35:cf:7b:01:73:14:
         93:7f:03:e0:45:96:87:fb:44:4f:98:5c:60:ef:4b:2f:2d:2d:
         24:83:d5:0d:31:52:1a:f2:7f:dd:1b:4c:cd:73:e6:19:71:ed:
         7d:37:88:f7:ff:40:1e:dd:b8:62:90:5e:bd:69:87:71:90:b7:
         01:fc
-----BEGIN CERTIFICATE-----
MIID/TCCA2agAwIBAgIBATANBgkqhkiG9w0BAQUFADCBkTELMAkGA1UEBhMCQ04x
CzAJBgNVBAgTAkhCMQswCQYDVQQHEwJXSDENMAsGA1UEChMESFVTVDERMA8GA1UE
CxMIY2hhbmdlbWUxEDAOBgNVBAMTB0hVU1QgQ0ExETAPBgNVBCkTCGNoYW5nZW1l
MSEwHwYJKoZIhvcNAQkBFhJ5dWFuamlhbnllQDEyNi5jb20wHhcNMTQwODA5MDcz
NjQ3WhcNMjQwODA2MDczNjQ3WjCBkDELMAkGA1UEBhMCQ04xCzAJBgNVBAgTAkhC
MQswCQYDVQQHEwJXSDENMAsGA1UEChMESFVTVDERMA8GA1UECxMIY2hhbmdlbWUx
DzANBgNVBAMTBnNlcnZlcjERMA8GA1UEKRMIY2hhbmdlbWUxITAfBgkqhkiG9w0B
CQEWEnl1YW5qaWFueWVAMTI2LmNvbTCBnzANBgkqhkiG9w0BAQEFAAOBjQAwgYkC
gYEAoWQGC2V7TU8oga54npvuYBFxaoycHXhR4RXTAsixFpBXRt8REg81hxLl7JsL
5C5fRtbSf1NVc39OTszD1M/3Ca7uhgZqx5BMRxC0BDCJI01LWW9U2sY3wx550eFQ
q2XG6oL+iSNoC5Q6v0JSqMvxaGlXVplzZJXh4UEknC1RezMCAwEAAaOCAWIwggFe
MAkGA1UdEwQCMAAwEQYJYIZIAYb4QgEBBAQDAgZAMDQGCWCGSAGG+EIBDQQnFiVF
YXN5LVJTQSBHZW5lcmF0ZWQgU2VydmVyIENlcnRpZmljYXRlMB0GA1UdDgQWBBRr
0DCfEorLEUXCKaMB4J4RYlrUrTCBxgYDVR0jBIG+MIG7gBSiSEM34l8NcI5vYkQ8
S55sbg5B3qGBl6SBlDCBkTELMAkGA1UEBhMCQ04xCzAJBgNVBAgTAkhCMQswCQYD
VQQHEwJXSDENMAsGA1UEChMESFVTVDERMA8GA1UECxMIY2hhbmdlbWUxEDAOBgNV
BAMTB0hVU1QgQ0ExETAPBgNVBCkTCGNoYW5nZW1lMSEwHwYJKoZIhvcNAQkBFhJ5
dWFuamlhbnllQDEyNi5jb22CCQDRvN+JoATf5jATBgNVHSUEDDAKBggrBgEFBQcD
ATALBgNVHQ8EBAMCBaAwDQYJKoZIhvcNAQEFBQADgYEAXHrde/2vODYIfX7OvjBy
Ly5OZq5uZo6492pDYblFFA7KRdOjAi+MwXmNKU/2YllbK5V5xWa3M9tq8k7GFFzG
btAANc97AXMUk38D4EWWh/tET5hcYO9LLy0tJIPVDTFSGvJ/3RtMzXPmGXHtfTeI
9/9AHt24YpBevWmHcZC3Afw=
-----END CERTIFICATE-----
