Certificate:
    Data:
        Version: 3 (0x2)
        Serial Number: 2 (0x2)
    Signature Algorithm: sha1WithRSAEncryption
        Issuer: C=CN, ST=HB, L=WH, O=HUST, OU=changeme, CN=HUST CA/name=changeme/emailAddress=yuanjianye@126.com
        Validity
            Not Before: Aug  9 07:37:11 2014 GMT
            Not After : Aug  6 07:37:11 2024 GMT
        Subject: C=CN, ST=HB, L=WH, O=HUST, OU=changeme, CN=yuanjianye/name=changeme/emailAddress=yuanjianye@126.com
        Subject Public Key Info:
            Public Key Algorithm: rsaEncryption
                Public-Key: (1024 bit)
                Modulus:
                    00:aa:56:16:d7:62:6a:64:af:c0:09:6c:21:f5:45:
                    5c:81:c5:55:29:7b:40:6b:c2:4a:cd:f0:da:5c:07:
                    c2:44:98:8a:02:2a:cd:fd:6a:95:5b:0d:00:30:f9:
                    29:5d:6c:3e:54:cf:f8:43:88:a2:42:0b:45:83:79:
                    9b:6e:db:2a:ad:97:cf:16:8a:31:33:f3:32:68:9b:
                    60:65:d6:2c:0e:5b:06:ed:84:ff:45:df:e8:3f:26:
                    b4:db:75:81:82:a3:cb:96:ae:a3:cb:18:33:ef:65:
                    bc:0a:d0:3a:cf:b8:c9:c0:05:7e:d6:3f:6a:be:c2:
                    d0:6d:d6:41:f4:d4:e5:aa:39
                Exponent: 65537 (0x10001)
        X509v3 extensions:
            X509v3 Basic Constraints: 
                CA:FALSE
            Netscape Comment: 
                Easy-RSA Generated Certificate
            X509v3 Subject Key Identifier: 
                F3:40:04:A5:5A:9F:D7:9C:48:F4:2C:17:E0:D7:A5:38:9F:E7:F0:71
            X509v3 Authority Key Identifier: 
                keyid:A2:48:43:37:E2:5F:0D:70:8E:6F:62:44:3C:4B:9E:6C:6E:0E:41:DE
                DirName:/C=CN/ST=HB/L=WH/O=HUST/OU=changeme/CN=HUST CA/name=changeme/emailAddress=yuanjianye@126.com
                serial:D1:BC:DF:89:A0:04:DF:E6

            X509v3 Extended Key Usage: 
                TLS Web Client Authentication
            X509v3 Key Usage: 
                Digital Signature
    Signature Algorithm: sha1WithRSAEncryption
         7b:d1:c2:33:c1:97:35:c0:eb:a7:e4:4e:e9:cf:8e:f4:4a:31:
         03:f5:1f:97:bd:53:b6:e0:78:6f:59:59:c7:8b:cb:64:78:e8:
         e1:87:65:2f:5a:35:a8:c2:2f:2c:4c:ad:77:65:50:b1:c0:4b:
         32:4a:ef:c2:83:04:e1:ce:16:d4:68:2b:87:c1:8f:e4:2d:f3:
         82:ce:89:f1:a5:17:90:76:94:35:26:9c:1c:77:6e:0e:b8:6b:
         1a:03:9f:6b:10:3e:be:d0:45:34:db:ff:a7:e3:07:7e:fa:bd:
         9b:36:e0:f1:a8:1d:82:ae:fd:bf:4c:c5:dc:9d:5a:86:ab:7f:
         97:e1
-----BEGIN CERTIFICATE-----
MIID5zCCA1CgAwIBAgIBAjANBgkqhkiG9w0BAQUFADCBkTELMAkGA1UEBhMCQ04x
CzAJBgNVBAgTAkhCMQswCQYDVQQHEwJXSDENMAsGA1UEChMESFVTVDERMA8GA1UE
CxMIY2hhbmdlbWUxEDAOBgNVBAMTB0hVU1QgQ0ExETAPBgNVBCkTCGNoYW5nZW1l
MSEwHwYJKoZIhvcNAQkBFhJ5dWFuamlhbnllQDEyNi5jb20wHhcNMTQwODA5MDcz
NzExWhcNMjQwODA2MDczNzExWjCBlDELMAkGA1UEBhMCQ04xCzAJBgNVBAgTAkhC
MQswCQYDVQQHEwJXSDENMAsGA1UEChMESFVTVDERMA8GA1UECxMIY2hhbmdlbWUx
EzARBgNVBAMTCnl1YW5qaWFueWUxETAPBgNVBCkTCGNoYW5nZW1lMSEwHwYJKoZI
hvcNAQkBFhJ5dWFuamlhbnllQDEyNi5jb20wgZ8wDQYJKoZIhvcNAQEBBQADgY0A
MIGJAoGBAKpWFtdiamSvwAlsIfVFXIHFVSl7QGvCSs3w2lwHwkSYigIqzf1qlVsN
ADD5KV1sPlTP+EOIokILRYN5m27bKq2XzxaKMTPzMmibYGXWLA5bBu2E/0Xf6D8m
tNt1gYKjy5auo8sYM+9lvArQOs+4ycAFftY/ar7C0G3WQfTU5ao5AgMBAAGjggFI
MIIBRDAJBgNVHRMEAjAAMC0GCWCGSAGG+EIBDQQgFh5FYXN5LVJTQSBHZW5lcmF0
ZWQgQ2VydGlmaWNhdGUwHQYDVR0OBBYEFPNABKVan9ecSPQsF+DXpTif5/BxMIHG
BgNVHSMEgb4wgbuAFKJIQzfiXw1wjm9iRDxLnmxuDkHeoYGXpIGUMIGRMQswCQYD
VQQGEwJDTjELMAkGA1UECBMCSEIxCzAJBgNVBAcTAldIMQ0wCwYDVQQKEwRIVVNU
MREwDwYDVQQLEwhjaGFuZ2VtZTEQMA4GA1UEAxMHSFVTVCBDQTERMA8GA1UEKRMI
Y2hhbmdlbWUxITAfBgkqhkiG9w0BCQEWEnl1YW5qaWFueWVAMTI2LmNvbYIJANG8
34mgBN/mMBMGA1UdJQQMMAoGCCsGAQUFBwMCMAsGA1UdDwQEAwIHgDANBgkqhkiG
9w0BAQUFAAOBgQB70cIzwZc1wOun5E7pz470SjED9R+XvVO24HhvWVnHi8tkeOjh
h2UvWjWowi8sTK13ZVCxwEsySu/CgwThzhbUaCuHwY/kLfOCzonxpReQdpQ1Jpwc
d24OuGsaA59rED6+0EU02/+n4wd++r2bNuDxqB2Crv2/TMXcnVqGq3+X4Q==
-----END CERTIFICATE-----
