Certificate:
    Data:
        Version: 3 (0x2)
        Serial Number: 3 (0x3)
    Signature Algorithm: sha1WithRSAEncryption
        Issuer: C=CN, ST=HB, L=WH, O=HUST, OU=changeme, CN=HUST CA/name=changeme/emailAddress=yuanjianye@126.com
        Validity
            Not Before: Aug 11 03:40:46 2014 GMT
            Not After : Aug  8 03:40:46 2024 GMT
        Subject: C=CN, ST=HB, L=WH, O=HUST, OU=changeme, CN=yuanjianye_b/name=changeme/emailAddress=yuanjianye@126.com
        Subject Public Key Info:
            Public Key Algorithm: rsaEncryption
                Public-Key: (1024 bit)
                Modulus:
                    00:eb:d5:64:9a:76:50:7d:a5:00:ee:a0:28:dc:d2:
                    7e:53:1d:bb:92:ad:da:5a:22:f2:11:77:e7:ca:5a:
                    31:ae:6b:52:4a:a4:3a:8f:bf:d4:18:60:78:46:ac:
                    ff:a3:e7:91:76:3e:2e:67:5e:8d:84:68:e3:7b:47:
                    78:be:cc:7c:29:72:4b:2c:2b:0b:3d:ce:41:7f:67:
                    f4:c5:4f:ac:02:14:36:be:e7:b6:9f:cf:eb:33:53:
                    db:b1:60:18:0c:5c:ca:91:ff:d2:56:2e:2b:10:db:
                    b5:13:76:82:93:45:dc:9a:04:fe:76:9c:e7:57:d4:
                    20:e4:fd:e6:27:69:33:7e:9b
                Exponent: 65537 (0x10001)
        X509v3 extensions:
            X509v3 Basic Constraints: 
                CA:FALSE
            Netscape Comment: 
                Easy-RSA Generated Certificate
            X509v3 Subject Key Identifier: 
                66:6B:9A:C9:76:80:E4:B4:0C:E1:47:E9:C3:1B:67:2F:09:96:37:03
            X509v3 Authority Key Identifier: 
                keyid:A2:48:43:37:E2:5F:0D:70:8E:6F:62:44:3C:4B:9E:6C:6E:0E:41:DE
                DirName:/C=CN/ST=HB/L=WH/O=HUST/OU=changeme/CN=HUST CA/name=changeme/emailAddress=yuanjianye@126.com
                serial:D1:BC:DF:89:A0:04:DF:E6

            X509v3 Extended Key Usage: 
                TLS Web Client Authentication
            X509v3 Key Usage: 
                Digital Signature
    Signature Algorithm: sha1WithRSAEncryption
         9e:1b:99:76:a5:b2:12:11:a8:04:72:58:d5:6e:88:06:15:85:
         92:f2:2c:48:33:2c:26:36:b8:85:22:56:47:2c:7b:75:df:94:
         fd:72:df:42:3c:dd:d5:e2:94:d3:dc:b6:9c:f0:85:57:4c:bf:
         57:e9:c6:73:d9:b4:a6:36:31:b2:44:45:86:fa:47:6e:da:31:
         3f:76:1b:55:1d:f3:18:e6:43:f5:da:c2:4a:6e:d7:6e:43:b2:
         4e:a2:d3:12:28:c2:8f:86:11:2f:e5:01:6b:6b:e6:ae:f8:4a:
         9b:67:fe:0e:2b:b3:c0:a5:c5:f1:6a:d6:09:93:c1:9f:ea:9b:
         82:ac
-----BEGIN CERTIFICATE-----
MIID6TCCA1KgAwIBAgIBAzANBgkqhkiG9w0BAQUFADCBkTELMAkGA1UEBhMCQ04x
CzAJBgNVBAgTAkhCMQswCQYDVQQHEwJXSDENMAsGA1UEChMESFVTVDERMA8GA1UE
CxMIY2hhbmdlbWUxEDAOBgNVBAMTB0hVU1QgQ0ExETAPBgNVBCkTCGNoYW5nZW1l
MSEwHwYJKoZIhvcNAQkBFhJ5dWFuamlhbnllQDEyNi5jb20wHhcNMTQwODExMDM0
MDQ2WhcNMjQwODA4MDM0MDQ2WjCBljELMAkGA1UEBhMCQ04xCzAJBgNVBAgTAkhC
MQswCQYDVQQHEwJXSDENMAsGA1UEChMESFVTVDERMA8GA1UECxMIY2hhbmdlbWUx
FTATBgNVBAMUDHl1YW5qaWFueWVfYjERMA8GA1UEKRMIY2hhbmdlbWUxITAfBgkq
hkiG9w0BCQEWEnl1YW5qaWFueWVAMTI2LmNvbTCBnzANBgkqhkiG9w0BAQEFAAOB
jQAwgYkCgYEA69VkmnZQfaUA7qAo3NJ+Ux27kq3aWiLyEXfnyloxrmtSSqQ6j7/U
GGB4Rqz/o+eRdj4uZ16NhGjje0d4vsx8KXJLLCsLPc5Bf2f0xU+sAhQ2vue2n8/r
M1PbsWAYDFzKkf/SVi4rENu1E3aCk0XcmgT+dpznV9Qg5P3mJ2kzfpsCAwEAAaOC
AUgwggFEMAkGA1UdEwQCMAAwLQYJYIZIAYb4QgENBCAWHkVhc3ktUlNBIEdlbmVy
YXRlZCBDZXJ0aWZpY2F0ZTAdBgNVHQ4EFgQUZmuayXaA5LQM4UfpwxtnLwmWNwMw
gcYGA1UdIwSBvjCBu4AUokhDN+JfDXCOb2JEPEuebG4OQd6hgZekgZQwgZExCzAJ
BgNVBAYTAkNOMQswCQYDVQQIEwJIQjELMAkGA1UEBxMCV0gxDTALBgNVBAoTBEhV
U1QxETAPBgNVBAsTCGNoYW5nZW1lMRAwDgYDVQQDEwdIVVNUIENBMREwDwYDVQQp
EwhjaGFuZ2VtZTEhMB8GCSqGSIb3DQEJARYSeXVhbmppYW55ZUAxMjYuY29tggkA
0bzfiaAE3+YwEwYDVR0lBAwwCgYIKwYBBQUHAwIwCwYDVR0PBAQDAgeAMA0GCSqG
SIb3DQEBBQUAA4GBAJ4bmXalshIRqARyWNVuiAYVhZLyLEgzLCY2uIUiVkcse3Xf
lP1y30I83dXilNPctpzwhVdMv1fpxnPZtKY2MbJERYb6R27aMT92G1Ud8xjmQ/Xa
wkpu125Dsk6i0xIowo+GES/lAWtr5q74Sptn/g4rs8ClxfFq1gmTwZ/qm4Ks
-----END CERTIFICATE-----
