Certificate:
    Data:
        Version: 3 (0x2)
        Serial Number: 4 (0x4)
    Signature Algorithm: sha1WithRSAEncryption
        Issuer: C=CN, ST=HB, L=WH, O=HUST, OU=CS, CN=lichenggui/name=lichenggui/emailAddress=lichenggui@routon.com
        Validity
            Not Before: Sep 15 04:57:45 2014 GMT
            Not After : Sep 12 04:57:45 2024 GMT
        Subject: C=CN, ST=HB, L=WH, O=HUST, OU=lichenggui, CN=lichenggui/name=lichenggui/emailAddress=lichenggui@routon.com
        Subject Public Key Info:
            Public Key Algorithm: rsaEncryption
                Public-Key: (1024 bit)
                Modulus:
                    00:b2:37:84:09:0e:89:b5:4c:0d:f0:b2:40:69:4c:
                    14:38:83:90:7a:9e:5e:ed:14:0e:2f:ed:f8:ce:7f:
                    7a:0c:2f:cb:cb:37:99:e9:6d:9e:d4:a5:07:d3:0d:
                    60:6b:fc:cc:4c:c5:fc:5e:22:62:36:4c:a6:b2:e2:
                    b0:c6:fa:79:cc:56:6d:d5:d0:50:5b:db:b3:6a:a2:
                    89:e1:3b:97:ce:d5:99:c2:02:df:36:6f:44:87:d8:
                    9a:63:ec:3b:f1:5d:87:fb:a9:26:79:2c:53:d4:de:
                    73:0a:80:6e:56:1c:30:cd:d5:bc:d5:00:7a:c4:a9:
                    8c:54:d3:1a:b0:be:8b:6b:6f
                Exponent: 65537 (0x10001)
        X509v3 extensions:
            X509v3 Basic Constraints: 
                CA:FALSE
            Netscape Comment: 
                Easy-RSA Generated Certificate
            X509v3 Subject Key Identifier: 
                ED:0E:9C:6B:69:6A:30:8B:D4:8F:F0:3D:18:A5:FF:EF:C8:90:47:D2
            X509v3 Authority Key Identifier: 
                keyid:B3:50:E4:12:A0:C6:1A:6F:A9:42:2E:D3:EA:CF:21:10:1B:0C:8E:FC
                DirName:/C=CN/ST=HB/L=WH/O=HUST/OU=CS/CN=lichenggui/name=lichenggui/emailAddress=lichenggui@routon.com
                serial:A6:A6:75:FA:F6:47:F8:98

            X509v3 Extended Key Usage: 
                TLS Web Client Authentication
            X509v3 Key Usage: 
                Digital Signature
    Signature Algorithm: sha1WithRSAEncryption
         84:56:5b:cc:a9:f3:f0:3d:ec:7f:ae:a6:68:d0:d5:d3:fd:0d:
         46:8f:0c:0d:67:60:85:13:aa:d0:df:2c:ed:98:a8:57:7a:28:
         78:fa:d6:50:b8:57:a9:6e:53:16:39:6a:f4:9c:8e:ad:b6:e0:
         37:16:f8:34:88:fa:d6:39:3f:32:f2:83:0e:62:f7:f2:43:a2:
         10:d3:5b:1d:56:0a:c5:7d:71:5b:77:d6:5b:f8:5c:c1:a0:2c:
         7c:fa:26:b0:d6:54:a4:0a:fd:3b:40:18:05:3a:19:10:96:0b:
         39:ce:23:af:ba:6f:51:b2:78:54:08:01:3d:aa:4c:b7:35:22:
         c4:22
-----BEGIN CERTIFICATE-----
MIID8jCCA1ugAwIBAgIBBDANBgkqhkiG9w0BAQUFADCBkzELMAkGA1UEBhMCQ04x
CzAJBgNVBAgTAkhCMQswCQYDVQQHEwJXSDENMAsGA1UEChMESFVTVDELMAkGA1UE
CxMCQ1MxEzARBgNVBAMTCmxpY2hlbmdndWkxEzARBgNVBCkTCmxpY2hlbmdndWkx
JDAiBgkqhkiG9w0BCQEWFWxpY2hlbmdndWlAcm91dG9uLmNvbTAeFw0xNDA5MTUw
NDU3NDVaFw0yNDA5MTIwNDU3NDVaMIGbMQswCQYDVQQGEwJDTjELMAkGA1UECBMC
SEIxCzAJBgNVBAcTAldIMQ0wCwYDVQQKEwRIVVNUMRMwEQYDVQQLEwpsaWNoZW5n
Z3VpMRMwEQYDVQQDEwpsaWNoZW5nZ3VpMRMwEQYDVQQpEwpsaWNoZW5nZ3VpMSQw
IgYJKoZIhvcNAQkBFhVsaWNoZW5nZ3VpQHJvdXRvbi5jb20wgZ8wDQYJKoZIhvcN
AQEBBQADgY0AMIGJAoGBALI3hAkOibVMDfCyQGlMFDiDkHqeXu0UDi/t+M5/egwv
y8s3meltntSlB9MNYGv8zEzF/F4iYjZMprLisMb6ecxWbdXQUFvbs2qiieE7l87V
mcIC3zZvRIfYmmPsO/Fdh/upJnksU9TecwqAblYcMM3VvNUAesSpjFTTGrC+i2tv
AgMBAAGjggFKMIIBRjAJBgNVHRMEAjAAMC0GCWCGSAGG+EIBDQQgFh5FYXN5LVJT
QSBHZW5lcmF0ZWQgQ2VydGlmaWNhdGUwHQYDVR0OBBYEFO0OnGtpajCL1I/wPRil
/+/IkEfSMIHIBgNVHSMEgcAwgb2AFLNQ5BKgxhpvqUIu0+rPIRAbDI78oYGZpIGW
MIGTMQswCQYDVQQGEwJDTjELMAkGA1UECBMCSEIxCzAJBgNVBAcTAldIMQ0wCwYD
VQQKEwRIVVNUMQswCQYDVQQLEwJDUzETMBEGA1UEAxMKbGljaGVuZ2d1aTETMBEG
A1UEKRMKbGljaGVuZ2d1aTEkMCIGCSqGSIb3DQEJARYVbGljaGVuZ2d1aUByb3V0
b24uY29tggkApqZ1+vZH+JgwEwYDVR0lBAwwCgYIKwYBBQUHAwIwCwYDVR0PBAQD
AgeAMA0GCSqGSIb3DQEBBQUAA4GBAIRWW8yp8/A97H+upmjQ1dP9DUaPDA1nYIUT
qtDfLO2YqFd6KHj61lC4V6luUxY5avScjq224DcW+DSI+tY5PzLygw5i9/JDohDT
Wx1WCsV9cVt31lv4XMGgLHz6JrDWVKQK/TtAGAU6GRCWCznOI6+6b1GyeFQIAT2q
TLc1IsQi
-----END CERTIFICATE-----
