Certificate:
    Data:
        Version: 3 (0x2)
        Serial Number: 5 (0x5)
    Signature Algorithm: sha1WithRSAEncryption
        Issuer: C=CN, ST=HB, L=WH, O=HUST, OU=CS, CN=lichenggui/name=lichenggui/emailAddress=lichenggui@routon.com
        Validity
            Not Before: Sep 15 05:13:36 2014 GMT
            Not After : Sep 12 05:13:36 2024 GMT
        Subject: C=CN, ST=HB, L=WH, O=HUST, OU=yuanjianye_b, CN=yuanjianye_b/name=yuanjianye_b/emailAddress=yuanjianye@126.com
        Subject Public Key Info:
            Public Key Algorithm: rsaEncryption
                Public-Key: (1024 bit)
                Modulus:
                    00:e1:33:90:61:87:df:d1:e3:cb:9b:88:87:d3:c8:
                    da:36:12:05:9b:b6:9c:58:8a:0b:20:cc:a4:d0:64:
                    0b:68:c6:3e:a2:f4:85:f4:a4:2b:54:87:b8:dc:66:
                    50:34:fa:86:37:99:9d:13:e1:b7:31:bc:e8:ed:8b:
                    4e:2e:c5:64:07:cf:69:29:ab:36:1f:03:6c:41:3c:
                    5a:94:d2:29:05:1c:fc:d9:3f:a7:b3:ea:0b:a4:e9:
                    d2:1b:de:12:1f:90:37:f0:09:bd:7d:ae:1d:5d:9d:
                    11:9a:2a:27:74:dc:1c:bd:2e:f7:77:05:2a:97:6e:
                    f2:da:a8:e9:8e:d3:d2:0d:15
                Exponent: 65537 (0x10001)
        X509v3 extensions:
            X509v3 Basic Constraints: 
                CA:FALSE
            Netscape Comment: 
                Easy-RSA Generated Certificate
            X509v3 Subject Key Identifier: 
                22:9D:9C:ED:B3:44:DA:E0:5B:8F:F4:35:7A:D2:7A:10:5B:4F:D7:14
            X509v3 Authority Key Identifier: 
                keyid:B3:50:E4:12:A0:C6:1A:6F:A9:42:2E:D3:EA:CF:21:10:1B:0C:8E:FC
                DirName:/C=CN/ST=HB/L=WH/O=HUST/OU=CS/CN=lichenggui/name=lichenggui/emailAddress=lichenggui@routon.com
                serial:A6:A6:75:FA:F6:47:F8:98

            X509v3 Extended Key Usage: 
                TLS Web Client Authentication
            X509v3 Key Usage: 
                Digital Signature
    Signature Algorithm: sha1WithRSAEncryption
         1a:bf:d9:8d:36:79:15:35:3a:ef:ac:34:30:69:f9:d9:b0:46:
         37:c9:36:91:a0:8e:8b:ad:5e:5c:ce:c7:0e:49:5f:c4:75:91:
         22:b0:e7:46:f2:49:25:48:0d:e1:20:63:8c:de:d7:88:92:32:
         ce:4e:5b:ae:3e:d6:87:51:a8:f0:ba:78:03:b8:67:d3:bf:26:
         94:9a:46:65:13:90:9a:79:8c:88:e4:0b:af:01:1f:7b:60:3e:
         13:1b:98:14:c8:84:e4:c0:39:3c:73:71:4e:e3:7b:f8:78:7b:
         78:a6:20:4f:90:9d:1a:67:1f:36:d1:30:45:0e:8d:47:db:c5:
         03:9d
-----BEGIN CERTIFICATE-----
MIID9TCCA16gAwIBAgIBBTANBgkqhkiG9w0BAQUFADCBkzELMAkGA1UEBhMCQ04x
CzAJBgNVBAgTAkhCMQswCQYDVQQHEwJXSDENMAsGA1UEChMESFVTVDELMAkGA1UE
CxMCQ1MxEzARBgNVBAMTCmxpY2hlbmdndWkxEzARBgNVBCkTCmxpY2hlbmdndWkx
JDAiBgkqhkiG9w0BCQEWFWxpY2hlbmdndWlAcm91dG9uLmNvbTAeFw0xNDA5MTUw
NTEzMzZaFw0yNDA5MTIwNTEzMzZaMIGeMQswCQYDVQQGEwJDTjELMAkGA1UECBMC
SEIxCzAJBgNVBAcTAldIMQ0wCwYDVQQKEwRIVVNUMRUwEwYDVQQLFAx5dWFuamlh
bnllX2IxFTATBgNVBAMUDHl1YW5qaWFueWVfYjEVMBMGA1UEKRQMeXVhbmppYW55
ZV9iMSEwHwYJKoZIhvcNAQkBFhJ5dWFuamlhbnllQDEyNi5jb20wgZ8wDQYJKoZI
hvcNAQEBBQADgY0AMIGJAoGBAOEzkGGH39Hjy5uIh9PI2jYSBZu2nFiKCyDMpNBk
C2jGPqL0hfSkK1SHuNxmUDT6hjeZnRPhtzG86O2LTi7FZAfPaSmrNh8DbEE8WpTS
KQUc/Nk/p7PqC6Tp0hveEh+QN/AJvX2uHV2dEZoqJ3TcHL0u93cFKpdu8tqo6Y7T
0g0VAgMBAAGjggFKMIIBRjAJBgNVHRMEAjAAMC0GCWCGSAGG+EIBDQQgFh5FYXN5
LVJTQSBHZW5lcmF0ZWQgQ2VydGlmaWNhdGUwHQYDVR0OBBYEFCKdnO2zRNrgW4/0
NXrSehBbT9cUMIHIBgNVHSMEgcAwgb2AFLNQ5BKgxhpvqUIu0+rPIRAbDI78oYGZ
pIGWMIGTMQswCQYDVQQGEwJDTjELMAkGA1UECBMCSEIxCzAJBgNVBAcTAldIMQ0w
CwYDVQQKEwRIVVNUMQswCQYDVQQLEwJDUzETMBEGA1UEAxMKbGljaGVuZ2d1aTET
MBEGA1UEKRMKbGljaGVuZ2d1aTEkMCIGCSqGSIb3DQEJARYVbGljaGVuZ2d1aUBy
b3V0b24uY29tggkApqZ1+vZH+JgwEwYDVR0lBAwwCgYIKwYBBQUHAwIwCwYDVR0P
BAQDAgeAMA0GCSqGSIb3DQEBBQUAA4GBABq/2Y02eRU1Ou+sNDBp+dmwRjfJNpGg
joutXlzOxw5JX8R1kSKw50bySSVIDeEgY4ze14iSMs5OW64+1odRqPC6eAO4Z9O/
JpSaRmUTkJp5jIjkC68BH3tgPhMbmBTIhOTAOTxzcU7je/h4e3imIE+QnRpnHzbR
MEUOjUfbxQOd
-----END CERTIFICATE-----
