Certificate:
    Data:
        Version: 3 (0x2)
        Serial Number: 7 (0x7)
    Signature Algorithm: sha1WithRSAEncryption
        Issuer: C=CN, ST=HB, L=WH, O=HUST, OU=CS, CN=lichenggui/name=lichenggui/emailAddress=lichenggui@routon.com
        Validity
            Not Before: Sep 15 05:54:06 2014 GMT
            Not After : Sep 12 05:54:06 2024 GMT
        Subject: C=CN, ST=HB, L=WH, O=HUST, OU=zhouzhengyong, CN=zhouzhengyong/name=zhouzhengyong/emailAddress=yuanjianye@126.com
        Subject Public Key Info:
            Public Key Algorithm: rsaEncryption
                Public-Key: (1024 bit)
                Modulus:
                    00:be:e4:83:3e:ca:00:33:d3:8f:5c:8a:6f:b3:f4:
                    0c:30:73:e6:d8:f4:9a:08:f5:a5:3e:ae:c7:cc:4a:
                    02:3d:d2:3f:2a:03:8c:72:51:0f:31:26:76:0c:c7:
                    b3:02:6a:3d:44:a4:05:0a:6b:e5:fa:dd:dd:0b:47:
                    31:e2:5a:9b:f4:0e:24:1e:fc:9d:42:15:70:49:50:
                    79:5f:88:79:26:6b:b0:58:dd:87:22:8f:be:81:e6:
                    0d:5c:d0:31:c2:18:70:c5:76:62:fb:45:51:37:5d:
                    b4:1c:06:86:fa:13:ce:4b:5c:18:8f:28:20:66:33:
                    a3:38:d6:b7:37:45:ee:f1:13
                Exponent: 65537 (0x10001)
        X509v3 extensions:
            X509v3 Basic Constraints: 
                CA:FALSE
            Netscape Comment: 
                Easy-RSA Generated Certificate
            X509v3 Subject Key Identifier: 
                76:76:CA:5F:2D:A8:94:17:AA:62:0A:04:64:29:A9:B5:13:77:7C:47
            X509v3 Authority Key Identifier: 
                keyid:B3:50:E4:12:A0:C6:1A:6F:A9:42:2E:D3:EA:CF:21:10:1B:0C:8E:FC
                DirName:/C=CN/ST=HB/L=WH/O=HUST/OU=CS/CN=lichenggui/name=lichenggui/emailAddress=lichenggui@routon.com
                serial:A6:A6:75:FA:F6:47:F8:98

            X509v3 Extended Key Usage: 
                TLS Web Client Authentication
            X509v3 Key Usage: 
                Digital Signature
    Signature Algorithm: sha1WithRSAEncryption
         97:56:b5:ab:d3:59:c1:33:11:43:38:8b:0b:b2:95:15:da:3a:
         a4:8b:08:1f:9c:6f:e3:f5:b4:de:45:9f:e2:1a:50:8b:1a:be:
         a2:6e:52:d6:10:98:98:35:bf:44:3c:4e:6c:62:5f:4a:d1:68:
         f0:6d:d2:6b:49:bc:58:5d:64:f8:be:98:80:a6:cd:78:4c:c5:
         50:fd:91:10:2b:95:29:88:15:8d:f0:7b:c7:4b:09:8d:18:21:
         7c:ac:ac:c2:4d:3c:9a:c0:a6:a7:21:79:e2:17:c0:de:ff:7e:
         e5:93:43:a1:c4:aa:68:b9:c8:17:c5:f5:dd:5d:6f:03:7d:68:
         9e:64
-----BEGIN CERTIFICATE-----
MIID+DCCA2GgAwIBAgIBBzANBgkqhkiG9w0BAQUFADCBkzELMAkGA1UEBhMCQ04x
CzAJBgNVBAgTAkhCMQswCQYDVQQHEwJXSDENMAsGA1UEChMESFVTVDELMAkGA1UE
CxMCQ1MxEzARBgNVBAMTCmxpY2hlbmdndWkxEzARBgNVBCkTCmxpY2hlbmdndWkx
JDAiBgkqhkiG9w0BCQEWFWxpY2hlbmdndWlAcm91dG9uLmNvbTAeFw0xNDA5MTUw
NTU0MDZaFw0yNDA5MTIwNTU0MDZaMIGhMQswCQYDVQQGEwJDTjELMAkGA1UECBMC
SEIxCzAJBgNVBAcTAldIMQ0wCwYDVQQKEwRIVVNUMRYwFAYDVQQLEw16aG91emhl
bmd5b25nMRYwFAYDVQQDEw16aG91emhlbmd5b25nMRYwFAYDVQQpEw16aG91emhl
bmd5b25nMSEwHwYJKoZIhvcNAQkBFhJ5dWFuamlhbnllQDEyNi5jb20wgZ8wDQYJ
KoZIhvcNAQEBBQADgY0AMIGJAoGBAL7kgz7KADPTj1yKb7P0DDBz5tj0mgj1pT6u
x8xKAj3SPyoDjHJRDzEmdgzHswJqPUSkBQpr5frd3QtHMeJam/QOJB78nUIVcElQ
eV+IeSZrsFjdhyKPvoHmDVzQMcIYcMV2YvtFUTddtBwGhvoTzktcGI8oIGYzozjW
tzdF7vETAgMBAAGjggFKMIIBRjAJBgNVHRMEAjAAMC0GCWCGSAGG+EIBDQQgFh5F
YXN5LVJTQSBHZW5lcmF0ZWQgQ2VydGlmaWNhdGUwHQYDVR0OBBYEFHZ2yl8tqJQX
qmIKBGQpqbUTd3xHMIHIBgNVHSMEgcAwgb2AFLNQ5BKgxhpvqUIu0+rPIRAbDI78
oYGZpIGWMIGTMQswCQYDVQQGEwJDTjELMAkGA1UECBMCSEIxCzAJBgNVBAcTAldI
MQ0wCwYDVQQKEwRIVVNUMQswCQYDVQQLEwJDUzETMBEGA1UEAxMKbGljaGVuZ2d1
aTETMBEGA1UEKRMKbGljaGVuZ2d1aTEkMCIGCSqGSIb3DQEJARYVbGljaGVuZ2d1
aUByb3V0b24uY29tggkApqZ1+vZH+JgwEwYDVR0lBAwwCgYIKwYBBQUHAwIwCwYD
VR0PBAQDAgeAMA0GCSqGSIb3DQEBBQUAA4GBAJdWtavTWcEzEUM4iwuylRXaOqSL
CB+cb+P1tN5Fn+IaUIsavqJuUtYQmJg1v0Q8TmxiX0rRaPBt0mtJvFhdZPi+mICm
zXhMxVD9kRArlSmIFY3we8dLCY0YIXysrMJNPJrApqcheeIXwN7/fuWTQ6HEqmi5
yBfF9d1dbwN9aJ5k
-----END CERTIFICATE-----
