Certificate:
    Data:
        Version: 3 (0x2)
        Serial Number: 9 (0x9)
    Signature Algorithm: sha1WithRSAEncryption
        Issuer: C=CN, ST=HB, L=WH, O=HUST, OU=CS, CN=lichenggui/name=lichenggui/emailAddress=lichenggui@routon.com
        Validity
            Not Before: Sep 16 06:12:56 2014 GMT
            Not After : Sep 13 06:12:56 2024 GMT
        Subject: C=CN, ST=HB, L=WH, O=HUST, OU=huangxm, CN=huangxm/name=huangxm/emailAddress=huangxinming@routon.com
        Subject Public Key Info:
            Public Key Algorithm: rsaEncryption
                Public-Key: (1024 bit)
                Modulus:
                    00:f7:8b:9c:e3:be:92:18:be:c8:04:fc:ee:0a:d7:
                    2b:a1:d1:4c:d8:17:05:4c:13:19:6a:0b:a8:2b:b0:
                    6c:00:9b:32:b9:dc:91:71:6a:1a:00:00:65:54:5b:
                    c1:22:79:da:b7:7d:c7:78:73:0f:d1:3b:a2:aa:36:
                    c3:dc:f4:92:9c:85:3a:6f:a7:31:19:3e:d3:47:8c:
                    38:98:0a:df:38:29:30:c1:79:43:cf:83:07:7e:06:
                    dd:fe:6c:ec:bd:f6:2b:a3:d4:ed:b0:c4:ee:ab:6f:
                    5d:12:e6:b9:c2:d7:5c:e8:68:b1:78:a1:34:85:5d:
                    16:41:69:30:38:33:ec:ba:93
                Exponent: 65537 (0x10001)
        X509v3 extensions:
            X509v3 Basic Constraints: 
                CA:FALSE
            Netscape Comment: 
                Easy-RSA Generated Certificate
            X509v3 Subject Key Identifier: 
                F5:60:AB:90:8D:40:21:95:5A:C9:85:F4:09:75:3F:06:B2:42:55:A6
            X509v3 Authority Key Identifier: 
                keyid:B3:50:E4:12:A0:C6:1A:6F:A9:42:2E:D3:EA:CF:21:10:1B:0C:8E:FC
                DirName:/C=CN/ST=HB/L=WH/O=HUST/OU=CS/CN=lichenggui/name=lichenggui/emailAddress=lichenggui@routon.com
                serial:A6:A6:75:FA:F6:47:F8:98

            X509v3 Extended Key Usage: 
                TLS Web Client Authentication
            X509v3 Key Usage: 
                Digital Signature
    Signature Algorithm: sha1WithRSAEncryption
         bb:4b:5b:d8:9e:e9:98:44:c7:2a:71:94:85:42:c7:a2:e6:25:
         d8:8b:06:29:eb:a3:e3:eb:9b:3b:53:23:92:14:44:5d:e6:3e:
         9f:6e:ad:96:36:d1:60:8e:de:e5:15:93:d7:19:83:bb:2c:dd:
         04:6b:1d:b6:ce:7f:2f:16:ae:05:61:d9:3c:e2:0f:93:36:19:
         68:1b:20:21:2a:85:68:7c:50:88:4b:18:2e:82:91:9c:cb:9b:
         94:5e:91:4e:83:67:de:5f:5b:7f:80:5c:4a:bb:93:47:b3:7c:
         5c:41:bf:d7:40:46:44:00:38:cf:17:c9:de:dc:80:0c:a0:fa:
         67:3b
-----BEGIN CERTIFICATE-----
MIID6zCCA1SgAwIBAgIBCTANBgkqhkiG9w0BAQUFADCBkzELMAkGA1UEBhMCQ04x
CzAJBgNVBAgTAkhCMQswCQYDVQQHEwJXSDENMAsGA1UEChMESFVTVDELMAkGA1UE
CxMCQ1MxEzARBgNVBAMTCmxpY2hlbmdndWkxEzARBgNVBCkTCmxpY2hlbmdndWkx
JDAiBgkqhkiG9w0BCQEWFWxpY2hlbmdndWlAcm91dG9uLmNvbTAeFw0xNDA5MTYw
NjEyNTZaFw0yNDA5MTMwNjEyNTZaMIGUMQswCQYDVQQGEwJDTjELMAkGA1UECBMC
SEIxCzAJBgNVBAcTAldIMQ0wCwYDVQQKEwRIVVNUMRAwDgYDVQQLEwdodWFuZ3ht
MRAwDgYDVQQDEwdodWFuZ3htMRAwDgYDVQQpEwdodWFuZ3htMSYwJAYJKoZIhvcN
AQkBFhdodWFuZ3hpbm1pbmdAcm91dG9uLmNvbTCBnzANBgkqhkiG9w0BAQEFAAOB
jQAwgYkCgYEA94uc476SGL7IBPzuCtcrodFM2BcFTBMZaguoK7BsAJsyudyRcWoa
AABlVFvBInnat33HeHMP0TuiqjbD3PSSnIU6b6cxGT7TR4w4mArfOCkwwXlDz4MH
fgbd/mzsvfYro9TtsMTuq29dEua5wtdc6GixeKE0hV0WQWkwODPsupMCAwEAAaOC
AUowggFGMAkGA1UdEwQCMAAwLQYJYIZIAYb4QgENBCAWHkVhc3ktUlNBIEdlbmVy
YXRlZCBDZXJ0aWZpY2F0ZTAdBgNVHQ4EFgQU9WCrkI1AIZVayYX0CXU/BrJCVaYw
gcgGA1UdIwSBwDCBvYAUs1DkEqDGGm+pQi7T6s8hEBsMjvyhgZmkgZYwgZMxCzAJ
BgNVBAYTAkNOMQswCQYDVQQIEwJIQjELMAkGA1UEBxMCV0gxDTALBgNVBAoTBEhV
U1QxCzAJBgNVBAsTAkNTMRMwEQYDVQQDEwpsaWNoZW5nZ3VpMRMwEQYDVQQpEwps
aWNoZW5nZ3VpMSQwIgYJKoZIhvcNAQkBFhVsaWNoZW5nZ3VpQHJvdXRvbi5jb22C
CQCmpnX69kf4mDATBgNVHSUEDDAKBggrBgEFBQcDAjALBgNVHQ8EBAMCB4AwDQYJ
KoZIhvcNAQEFBQADgYEAu0tb2J7pmETHKnGUhULHouYl2IsGKeuj4+ubO1MjkhRE
XeY+n26tljbRYI7e5RWT1xmDuyzdBGsdts5/LxauBWHZPOIPkzYZaBsgISqFaHxQ
iEsYLoKRnMublF6RToNn3l9bf4BcSruTR7N8XEG/10BGRAA4zxfJ3tyADKD6Zzs=
-----END CERTIFICATE-----
