Certificate:
    Data:
        Version: 3 (0x2)
        Serial Number: 11 (0xb)
    Signature Algorithm: sha1WithRSAEncryption
        Issuer: C=CN, ST=HB, L=WH, O=HUST, OU=CS, CN=lichenggui/name=lichenggui/emailAddress=lichenggui@routon.com
        Validity
            Not Before: Sep 26 07:19:28 2014 GMT
            Not After : Sep 23 07:19:28 2024 GMT
        Subject: C=CN, ST=HB, L=WH, O=HUST, OU=lichenggui_a, CN=lichenggui_a/name=lichenggui_a/emailAddress=yuanjianye@126.com
        Subject Public Key Info:
            Public Key Algorithm: rsaEncryption
                Public-Key: (1024 bit)
                Modulus:
                    00:ad:50:37:d9:18:a9:60:f1:38:85:e6:65:3e:a5:
                    a3:d7:0d:90:54:e9:e9:38:9b:c0:1e:ed:48:81:ff:
                    d1:fc:39:77:1c:4e:41:5f:ef:83:c2:35:62:5e:af:
                    65:54:4b:09:36:00:5b:1f:55:f6:6d:bc:ba:60:03:
                    76:60:47:f4:5e:6c:7b:4b:a2:98:d0:61:ab:84:b2:
                    da:5c:29:39:70:79:5e:4e:a5:bd:56:b9:9a:d3:94:
                    92:88:7f:e3:91:92:81:8f:10:82:6c:8e:b3:a1:ca:
                    c0:f6:b6:ab:53:6e:47:38:97:f3:8a:fc:bf:a2:3d:
                    b3:90:8e:fb:da:a1:14:5c:c9
                Exponent: 65537 (0x10001)
        X509v3 extensions:
            X509v3 Basic Constraints: 
                CA:FALSE
            Netscape Comment: 
                Easy-RSA Generated Certificate
            X509v3 Subject Key Identifier: 
                1C:C0:62:7A:CF:C0:FD:AF:52:C5:6A:E0:8E:E6:FE:10:99:CC:7B:46
            X509v3 Authority Key Identifier: 
                keyid:B3:50:E4:12:A0:C6:1A:6F:A9:42:2E:D3:EA:CF:21:10:1B:0C:8E:FC
                DirName:/C=CN/ST=HB/L=WH/O=HUST/OU=CS/CN=lichenggui/name=lichenggui/emailAddress=lichenggui@routon.com
                serial:A6:A6:75:FA:F6:47:F8:98

            X509v3 Extended Key Usage: 
                TLS Web Client Authentication
            X509v3 Key Usage: 
                Digital Signature
    Signature Algorithm: sha1WithRSAEncryption
         cf:95:c3:8b:d6:ce:74:9f:4a:5e:f4:36:4b:a4:e6:64:59:1d:
         24:94:aa:d9:22:f1:5f:6b:fe:39:f6:94:45:f5:0a:41:18:cd:
         fc:e9:a3:17:f1:53:ac:a4:f6:e8:22:73:3a:80:1f:d6:c8:99:
         ac:ca:d6:ee:88:ec:19:0d:3d:59:d9:51:7d:44:1f:5e:24:46:
         6c:f7:ae:3c:d0:de:a4:de:6f:03:9d:7c:72:95:9c:4d:00:11:
         1b:49:8e:a9:f0:3a:bc:ab:55:59:29:dc:77:be:78:50:e4:d4:
         c9:21:f7:25:9a:62:a5:82:9a:28:3d:8b:5c:94:67:9a:35:54:
         66:06
-----BEGIN CERTIFICATE-----
MIID9TCCA16gAwIBAgIBCzANBgkqhkiG9w0BAQUFADCBkzELMAkGA1UEBhMCQ04x
CzAJBgNVBAgTAkhCMQswCQYDVQQHEwJXSDENMAsGA1UEChMESFVTVDELMAkGA1UE
CxMCQ1MxEzARBgNVBAMTCmxpY2hlbmdndWkxEzARBgNVBCkTCmxpY2hlbmdndWkx
JDAiBgkqhkiG9w0BCQEWFWxpY2hlbmdndWlAcm91dG9uLmNvbTAeFw0xNDA5MjYw
NzE5MjhaFw0yNDA5MjMwNzE5MjhaMIGeMQswCQYDVQQGEwJDTjELMAkGA1UECBMC
SEIxCzAJBgNVBAcTAldIMQ0wCwYDVQQKEwRIVVNUMRUwEwYDVQQLFAxsaWNoZW5n
Z3VpX2ExFTATBgNVBAMUDGxpY2hlbmdndWlfYTEVMBMGA1UEKRQMbGljaGVuZ2d1
aV9hMSEwHwYJKoZIhvcNAQkBFhJ5dWFuamlhbnllQDEyNi5jb20wgZ8wDQYJKoZI
hvcNAQEBBQADgY0AMIGJAoGBAK1QN9kYqWDxOIXmZT6lo9cNkFTp6TibwB7tSIH/
0fw5dxxOQV/vg8I1Yl6vZVRLCTYAWx9V9m28umADdmBH9F5se0uimNBhq4Sy2lwp
OXB5Xk6lvVa5mtOUkoh/45GSgY8QgmyOs6HKwPa2q1NuRziX84r8v6I9s5CO+9qh
FFzJAgMBAAGjggFKMIIBRjAJBgNVHRMEAjAAMC0GCWCGSAGG+EIBDQQgFh5FYXN5
LVJTQSBHZW5lcmF0ZWQgQ2VydGlmaWNhdGUwHQYDVR0OBBYEFBzAYnrPwP2vUsVq
4I7m/hCZzHtGMIHIBgNVHSMEgcAwgb2AFLNQ5BKgxhpvqUIu0+rPIRAbDI78oYGZ
pIGWMIGTMQswCQYDVQQGEwJDTjELMAkGA1UECBMCSEIxCzAJBgNVBAcTAldIMQ0w
CwYDVQQKEwRIVVNUMQswCQYDVQQLEwJDUzETMBEGA1UEAxMKbGljaGVuZ2d1aTET
MBEGA1UEKRMKbGljaGVuZ2d1aTEkMCIGCSqGSIb3DQEJARYVbGljaGVuZ2d1aUBy
b3V0b24uY29tggkApqZ1+vZH+JgwEwYDVR0lBAwwCgYIKwYBBQUHAwIwCwYDVR0P
BAQDAgeAMA0GCSqGSIb3DQEBBQUAA4GBAM+Vw4vWznSfSl70Nkuk5mRZHSSUqtki
8V9r/jn2lEX1CkEYzfzpoxfxU6yk9ugiczqAH9bImazK1u6I7BkNPVnZUX1EH14k
Rmz3rjzQ3qTebwOdfHKVnE0AERtJjqnwOryrVVkp3He+eFDk1Mkh9yWaYqWCmig9
i1yUZ5o1VGYG
-----END CERTIFICATE-----
