Certificate:
    Data:
        Version: 3 (0x2)
        Serial Number: 12 (0xc)
    Signature Algorithm: sha1WithRSAEncryption
        Issuer: C=CN, ST=HB, L=WH, O=HUST, OU=CS, CN=lichenggui/name=lichenggui/emailAddress=lichenggui@routon.com
        Validity
            Not Before: Sep 26 08:04:21 2014 GMT
            Not After : Sep 23 08:04:21 2024 GMT
        Subject: C=CN, ST=HB, L=WH, O=HUST, OU=changeme, CN=lichenggui_b/name=changeme/emailAddress=yuanjianye@126.com
        Subject Public Key Info:
            Public Key Algorithm: rsaEncryption
                Public-Key: (1024 bit)
                Modulus:
                    00:bc:5c:9e:6f:5d:a7:06:7d:3e:6a:02:0a:c2:93:
                    a7:cf:e3:d7:5f:80:40:33:fd:07:36:4d:06:a1:5d:
                    10:e2:c6:4c:62:91:34:1d:4c:4c:bf:63:c6:b7:4d:
                    c4:42:d3:86:59:7d:3f:05:07:56:7b:6d:5d:e4:ff:
                    e8:13:79:65:27:3d:c1:ff:ce:7e:ca:1e:dd:5f:da:
                    bd:79:fa:ac:4b:fd:92:98:0b:e6:52:f0:1a:f4:a9:
                    39:33:11:4d:da:a4:b8:6b:18:34:d0:89:92:ad:b1:
                    7e:0b:cd:2d:1c:8c:94:84:a1:b7:af:32:5f:18:8d:
                    52:d8:75:ac:a9:a9:5d:86:6f
                Exponent: 65537 (0x10001)
        X509v3 extensions:
            X509v3 Basic Constraints: 
                CA:FALSE
            Netscape Comment: 
                Easy-RSA Generated Certificate
            X509v3 Subject Key Identifier: 
                A6:F3:ED:97:A7:FD:29:B6:FD:E7:D5:1C:54:C7:E9:04:84:1C:08:FE
            X509v3 Authority Key Identifier: 
                keyid:B3:50:E4:12:A0:C6:1A:6F:A9:42:2E:D3:EA:CF:21:10:1B:0C:8E:FC
                DirName:/C=CN/ST=HB/L=WH/O=HUST/OU=CS/CN=lichenggui/name=lichenggui/emailAddress=lichenggui@routon.com
                serial:A6:A6:75:FA:F6:47:F8:98

            X509v3 Extended Key Usage: 
                TLS Web Client Authentication
            X509v3 Key Usage: 
                Digital Signature
    Signature Algorithm: sha1WithRSAEncryption
         a1:82:3e:bc:37:6a:fe:dc:86:71:05:9a:d7:99:4f:67:ed:3f:
         6f:bd:d2:54:9b:4b:ad:18:de:f4:94:9e:1c:d5:d0:50:be:0b:
         fc:10:48:c9:bc:38:4f:ad:d4:b7:cd:34:21:79:75:20:3f:0c:
         4d:4d:a2:fb:b3:b3:a1:59:8c:b0:9e:30:57:78:da:4c:60:4b:
         bf:84:19:ed:58:6f:08:22:16:2a:36:dc:e3:e4:4e:61:10:60:
         c0:9b:cc:10:18:b5:cb:19:a6:c2:e5:bb:85:64:e6:f2:c8:7c:
         28:d5:3d:1e:5a:9b:4d:a1:a2:41:72:2b:1b:f2:41:da:de:be:
         96:7b
-----BEGIN CERTIFICATE-----
MIID7TCCA1agAwIBAgIBDDANBgkqhkiG9w0BAQUFADCBkzELMAkGA1UEBhMCQ04x
CzAJBgNVBAgTAkhCMQswCQYDVQQHEwJXSDENMAsGA1UEChMESFVTVDELMAkGA1UE
CxMCQ1MxEzARBgNVBAMTCmxpY2hlbmdndWkxEzARBgNVBCkTCmxpY2hlbmdndWkx
JDAiBgkqhkiG9w0BCQEWFWxpY2hlbmdndWlAcm91dG9uLmNvbTAeFw0xNDA5MjYw
ODA0MjFaFw0yNDA5MjMwODA0MjFaMIGWMQswCQYDVQQGEwJDTjELMAkGA1UECBMC
SEIxCzAJBgNVBAcTAldIMQ0wCwYDVQQKEwRIVVNUMREwDwYDVQQLEwhjaGFuZ2Vt
ZTEVMBMGA1UEAxQMbGljaGVuZ2d1aV9iMREwDwYDVQQpEwhjaGFuZ2VtZTEhMB8G
CSqGSIb3DQEJARYSeXVhbmppYW55ZUAxMjYuY29tMIGfMA0GCSqGSIb3DQEBAQUA
A4GNADCBiQKBgQC8XJ5vXacGfT5qAgrCk6fP49dfgEAz/Qc2TQahXRDixkxikTQd
TEy/Y8a3TcRC04ZZfT8FB1Z7bV3k/+gTeWUnPcH/zn7KHt1f2r15+qxL/ZKYC+ZS
8Br0qTkzEU3apLhrGDTQiZKtsX4LzS0cjJSEobevMl8YjVLYdaypqV2GbwIDAQAB
o4IBSjCCAUYwCQYDVR0TBAIwADAtBglghkgBhvhCAQ0EIBYeRWFzeS1SU0EgR2Vu
ZXJhdGVkIENlcnRpZmljYXRlMB0GA1UdDgQWBBSm8+2Xp/0ptv3n1RxUx+kEhBwI
/jCByAYDVR0jBIHAMIG9gBSzUOQSoMYab6lCLtPqzyEQGwyO/KGBmaSBljCBkzEL
MAkGA1UEBhMCQ04xCzAJBgNVBAgTAkhCMQswCQYDVQQHEwJXSDENMAsGA1UEChME
SFVTVDELMAkGA1UECxMCQ1MxEzARBgNVBAMTCmxpY2hlbmdndWkxEzARBgNVBCkT
CmxpY2hlbmdndWkxJDAiBgkqhkiG9w0BCQEWFWxpY2hlbmdndWlAcm91dG9uLmNv
bYIJAKamdfr2R/iYMBMGA1UdJQQMMAoGCCsGAQUFBwMCMAsGA1UdDwQEAwIHgDAN
BgkqhkiG9w0BAQUFAAOBgQChgj68N2r+3IZxBZrXmU9n7T9vvdJUm0utGN70lJ4c
1dBQvgv8EEjJvDhPrdS3zTQheXUgPwxNTaL7s7OhWYywnjBXeNpMYEu/hBntWG8I
IhYqNtzj5E5hEGDAm8wQGLXLGabC5buFZObyyHwo1T0eWptNoaJBcisb8kHa3r6W
ew==
-----END CERTIFICATE-----
