Certificate:
    Data:
        Version: 3 (0x2)
        Serial Number: 13 (0xd)
    Signature Algorithm: sha1WithRSAEncryption
        Issuer: C=CN, ST=HB, L=WH, O=HUST, OU=CS, CN=lichenggui/name=lichenggui/emailAddress=lichenggui@routon.com
        Validity
            Not Before: Sep 26 08:13:00 2014 GMT
            Not After : Sep 23 08:13:00 2024 GMT
        Subject: C=CN, ST=HB, L=WH, O=HUST, OU=CS, CN=yuanjianye_g/name=yuanjianye_g/emailAddress=yuanjianye@126.com
        Subject Public Key Info:
            Public Key Algorithm: rsaEncryption
                Public-Key: (1024 bit)
                Modulus:
                    00:a2:a5:d4:72:d3:b1:ae:a9:18:d5:6e:92:4c:06:
                    a1:93:c0:09:2d:3e:39:8b:3f:f3:74:7e:e4:38:25:
                    bc:36:50:84:97:86:26:9a:56:66:a9:ef:2e:11:a7:
                    02:10:35:3a:00:23:fe:2f:e7:f3:d5:5d:72:65:b8:
                    34:c5:d4:ea:5d:85:37:c4:94:13:d4:9b:a2:f0:f5:
                    3e:49:36:51:1e:47:14:71:01:46:88:aa:d1:d3:18:
                    12:51:b6:0a:00:fb:4b:a3:f1:20:b3:90:30:08:f0:
                    f1:4b:0b:d7:0f:02:e1:4d:26:53:ef:b2:b0:43:97:
                    b2:f2:37:16:60:44:13:d7:09
                Exponent: 65537 (0x10001)
        X509v3 extensions:
            X509v3 Basic Constraints: 
                CA:FALSE
            Netscape Comment: 
                Easy-RSA Generated Certificate
            X509v3 Subject Key Identifier: 
                80:A0:47:0A:03:70:16:D7:5B:5D:78:7B:EF:6B:46:C2:63:F1:FD:5C
            X509v3 Authority Key Identifier: 
                keyid:B3:50:E4:12:A0:C6:1A:6F:A9:42:2E:D3:EA:CF:21:10:1B:0C:8E:FC
                DirName:/C=CN/ST=HB/L=WH/O=HUST/OU=CS/CN=lichenggui/name=lichenggui/emailAddress=lichenggui@routon.com
                serial:A6:A6:75:FA:F6:47:F8:98

            X509v3 Extended Key Usage: 
                TLS Web Client Authentication
            X509v3 Key Usage: 
                Digital Signature
    Signature Algorithm: sha1WithRSAEncryption
         22:cd:23:d0:b1:8f:c4:19:2a:44:a6:7b:6d:71:2b:0c:8a:2d:
         2d:83:41:87:bb:e7:1b:88:6d:32:0a:da:1c:2e:05:12:14:d1:
         1a:32:a1:36:d5:0e:cc:84:c5:0a:00:80:10:f1:a2:4c:cb:f9:
         05:b4:0a:62:71:bf:71:cd:d5:e7:a6:33:83:7c:e6:5b:2f:5d:
         4e:0b:44:7d:33:e1:76:eb:2f:de:cf:44:b5:ec:24:42:3c:9c:
         39:05:79:02:c7:f2:5e:9b:67:82:a6:cf:bd:03:61:4e:53:76:
         8f:01:ed:8c:8d:97:62:80:ae:bd:6a:53:eb:04:80:3c:9a:05:
         d2:50
-----BEGIN CERTIFICATE-----
MIID6zCCA1SgAwIBAgIBDTANBgkqhkiG9w0BAQUFADCBkzELMAkGA1UEBhMCQ04x
CzAJBgNVBAgTAkhCMQswCQYDVQQHEwJXSDENMAsGA1UEChMESFVTVDELMAkGA1UE
CxMCQ1MxEzARBgNVBAMTCmxpY2hlbmdndWkxEzARBgNVBCkTCmxpY2hlbmdndWkx
JDAiBgkqhkiG9w0BCQEWFWxpY2hlbmdndWlAcm91dG9uLmNvbTAeFw0xNDA5MjYw
ODEzMDBaFw0yNDA5MjMwODEzMDBaMIGUMQswCQYDVQQGEwJDTjELMAkGA1UECBMC
SEIxCzAJBgNVBAcTAldIMQ0wCwYDVQQKEwRIVVNUMQswCQYDVQQLEwJDUzEVMBMG
A1UEAxQMeXVhbmppYW55ZV9nMRUwEwYDVQQpFAx5dWFuamlhbnllX2cxITAfBgkq
hkiG9w0BCQEWEnl1YW5qaWFueWVAMTI2LmNvbTCBnzANBgkqhkiG9w0BAQEFAAOB
jQAwgYkCgYEAoqXUctOxrqkY1W6STAahk8AJLT45iz/zdH7kOCW8NlCEl4YmmlZm
qe8uEacCEDU6ACP+L+fz1V1yZbg0xdTqXYU3xJQT1Jui8PU+STZRHkcUcQFGiKrR
0xgSUbYKAPtLo/Egs5AwCPDxSwvXDwLhTSZT77KwQ5ey8jcWYEQT1wkCAwEAAaOC
AUowggFGMAkGA1UdEwQCMAAwLQYJYIZIAYb4QgENBCAWHkVhc3ktUlNBIEdlbmVy
YXRlZCBDZXJ0aWZpY2F0ZTAdBgNVHQ4EFgQUgKBHCgNwFtdbXXh772tGwmPx/Vww
gcgGA1UdIwSBwDCBvYAUs1DkEqDGGm+pQi7T6s8hEBsMjvyhgZmkgZYwgZMxCzAJ
BgNVBAYTAkNOMQswCQYDVQQIEwJIQjELMAkGA1UEBxMCV0gxDTALBgNVBAoTBEhV
U1QxCzAJBgNVBAsTAkNTMRMwEQYDVQQDEwpsaWNoZW5nZ3VpMRMwEQYDVQQpEwps
aWNoZW5nZ3VpMSQwIgYJKoZIhvcNAQkBFhVsaWNoZW5nZ3VpQHJvdXRvbi5jb22C
CQCmpnX69kf4mDATBgNVHSUEDDAKBggrBgEFBQcDAjALBgNVHQ8EBAMCB4AwDQYJ
KoZIhvcNAQEFBQADgYEAIs0j0LGPxBkqRKZ7bXErDIotLYNBh7vnG4htMgraHC4F
EhTRGjKhNtUOzITFCgCAEPGiTMv5BbQKYnG/cc3V56Yzg3zmWy9dTgtEfTPhdusv
3s9EtewkQjycOQV5AsfyXptngqbPvQNhTlN2jwHtjI2XYoCuvWpT6wSAPJoF0lA=
-----END CERTIFICATE-----
