Certificate:
    Data:
        Version: 3 (0x2)
        Serial Number: 14 (0xe)
    Signature Algorithm: sha1WithRSAEncryption
        Issuer: C=CN, ST=HB, L=WH, O=HUST, OU=CS, CN=lichenggui/name=lichenggui/emailAddress=lichenggui@routon.com
        Validity
            Not Before: Sep 26 08:28:49 2014 GMT
            Not After : Sep 23 08:28:49 2024 GMT
        Subject: C=CN, ST=HB, L=WH, O=HUST, OU=changeme, CN=tongjia/name=changeme/emailAddress=yuanjianye@126.com
        Subject Public Key Info:
            Public Key Algorithm: rsaEncryption
                Public-Key: (1024 bit)
                Modulus:
                    00:a0:6d:7f:9b:51:86:ee:3f:3a:dc:80:76:2e:c8:
                    54:6d:3f:75:3b:fc:c9:c0:ea:26:01:8e:8d:09:7e:
                    35:1d:d0:86:f0:33:67:ad:0e:6d:10:47:52:54:a3:
                    4b:a8:f0:62:54:14:a9:43:21:83:49:d1:0d:2b:f2:
                    d1:d9:0f:ce:01:7e:1c:f9:1a:1e:51:1d:3b:85:ab:
                    08:c5:59:41:72:ed:9f:ee:26:d2:de:cd:6f:9b:82:
                    2f:b1:63:5c:e9:e2:5f:04:e3:ad:f0:ec:34:89:01:
                    8a:fd:03:c3:51:bd:7a:30:19:d1:9f:da:51:20:3e:
                    33:6d:b8:37:50:60:71:9e:67
                Exponent: 65537 (0x10001)
        X509v3 extensions:
            X509v3 Basic Constraints: 
                CA:FALSE
            Netscape Comment: 
                Easy-RSA Generated Certificate
            X509v3 Subject Key Identifier: 
                82:05:FD:C0:9F:6D:50:3A:84:31:F9:5F:0F:9E:D0:8C:00:54:C1:8B
            X509v3 Authority Key Identifier: 
                keyid:B3:50:E4:12:A0:C6:1A:6F:A9:42:2E:D3:EA:CF:21:10:1B:0C:8E:FC
                DirName:/C=CN/ST=HB/L=WH/O=HUST/OU=CS/CN=lichenggui/name=lichenggui/emailAddress=lichenggui@routon.com
                serial:A6:A6:75:FA:F6:47:F8:98

            X509v3 Extended Key Usage: 
                TLS Web Client Authentication
            X509v3 Key Usage: 
                Digital Signature
    Signature Algorithm: sha1WithRSAEncryption
         1c:4c:7d:3d:06:75:cd:32:56:78:60:cd:12:6d:a8:70:b3:cf:
         a0:97:62:5c:08:f7:05:5b:f1:4c:a9:0b:14:2d:73:50:86:3c:
         ac:b1:15:ba:c2:5e:3e:39:b9:d8:1e:57:e7:0a:c9:d0:77:dd:
         a5:e7:23:8e:a8:33:d2:e2:e1:bd:10:74:d5:77:3d:dc:e6:02:
         41:85:d2:08:c5:2b:57:a4:a5:eb:a8:e4:72:2c:d8:e7:97:e3:
         c0:14:f4:ee:5e:e3:54:de:c7:46:74:f6:0b:41:a1:50:29:45:
         eb:01:9d:35:a6:e0:8f:8b:aa:54:33:b8:8f:38:52:80:a5:ec:
         cd:19
-----BEGIN CERTIFICATE-----
MIID6DCCA1GgAwIBAgIBDjANBgkqhkiG9w0BAQUFADCBkzELMAkGA1UEBhMCQ04x
CzAJBgNVBAgTAkhCMQswCQYDVQQHEwJXSDENMAsGA1UEChMESFVTVDELMAkGA1UE
CxMCQ1MxEzARBgNVBAMTCmxpY2hlbmdndWkxEzARBgNVBCkTCmxpY2hlbmdndWkx
JDAiBgkqhkiG9w0BCQEWFWxpY2hlbmdndWlAcm91dG9uLmNvbTAeFw0xNDA5MjYw
ODI4NDlaFw0yNDA5MjMwODI4NDlaMIGRMQswCQYDVQQGEwJDTjELMAkGA1UECBMC
SEIxCzAJBgNVBAcTAldIMQ0wCwYDVQQKEwRIVVNUMREwDwYDVQQLEwhjaGFuZ2Vt
ZTEQMA4GA1UEAxMHdG9uZ2ppYTERMA8GA1UEKRMIY2hhbmdlbWUxITAfBgkqhkiG
9w0BCQEWEnl1YW5qaWFueWVAMTI2LmNvbTCBnzANBgkqhkiG9w0BAQEFAAOBjQAw
gYkCgYEAoG1/m1GG7j863IB2LshUbT91O/zJwOomAY6NCX41HdCG8DNnrQ5tEEdS
VKNLqPBiVBSpQyGDSdENK/LR2Q/OAX4c+RoeUR07hasIxVlBcu2f7ibS3s1vm4Iv
sWNc6eJfBOOt8Ow0iQGK/QPDUb16MBnRn9pRID4zbbg3UGBxnmcCAwEAAaOCAUow
ggFGMAkGA1UdEwQCMAAwLQYJYIZIAYb4QgENBCAWHkVhc3ktUlNBIEdlbmVyYXRl
ZCBDZXJ0aWZpY2F0ZTAdBgNVHQ4EFgQUggX9wJ9tUDqEMflfD57QjABUwYswgcgG
A1UdIwSBwDCBvYAUs1DkEqDGGm+pQi7T6s8hEBsMjvyhgZmkgZYwgZMxCzAJBgNV
BAYTAkNOMQswCQYDVQQIEwJIQjELMAkGA1UEBxMCV0gxDTALBgNVBAoTBEhVU1Qx
CzAJBgNVBAsTAkNTMRMwEQYDVQQDEwpsaWNoZW5nZ3VpMRMwEQYDVQQpEwpsaWNo
ZW5nZ3VpMSQwIgYJKoZIhvcNAQkBFhVsaWNoZW5nZ3VpQHJvdXRvbi5jb22CCQCm
pnX69kf4mDATBgNVHSUEDDAKBggrBgEFBQcDAjALBgNVHQ8EBAMCB4AwDQYJKoZI
hvcNAQEFBQADgYEAHEx9PQZ1zTJWeGDNEm2ocLPPoJdiXAj3BVvxTKkLFC1zUIY8
rLEVusJePjm52B5X5wrJ0Hfdpecjjqgz0uLhvRB01Xc93OYCQYXSCMUrV6Sl66jk
cizY55fjwBT07l7jVN7HRnT2C0GhUClF6wGdNabgj4uqVDO4jzhSgKXszRk=
-----END CERTIFICATE-----
