Certificate:
    Data:
        Version: 3 (0x2)
        Serial Number: 17 (0x11)
    Signature Algorithm: sha1WithRSAEncryption
        Issuer: C=CN, ST=HB, L=WH, O=HUST, OU=CS, CN=lichenggui/name=lichenggui/emailAddress=lichenggui@routon.com
        Validity
            Not Before: Sep 26 08:33:25 2014 GMT
            Not After : Sep 23 08:33:25 2024 GMT
        Subject: C=CN, ST=HB, L=WH, O=HUST, OU=changeme, CN=yuanjianye_j/name=yuanjianye_j/emailAddress=yuanjianye@126.com
        Subject Public Key Info:
            Public Key Algorithm: rsaEncryption
                Public-Key: (1024 bit)
                Modulus:
                    00:cf:96:07:b9:87:97:0a:74:79:e5:cf:06:a9:af:
                    e4:74:4b:06:70:7e:7c:bb:d7:29:39:02:c4:a7:42:
                    ac:f7:50:cf:44:d9:aa:9c:68:93:1d:98:1e:ff:92:
                    2f:a1:4e:72:9f:c0:f5:06:b3:c9:80:45:8e:52:9c:
                    c5:c3:00:8a:a6:32:35:c1:31:c1:b9:c3:c0:c1:1a:
                    e7:0e:f3:cf:8b:31:8e:f5:a5:1c:ef:1f:ae:9e:db:
                    3f:33:25:94:b8:e2:eb:7a:37:aa:38:77:25:cb:40:
                    7d:51:68:3d:7c:89:53:ac:07:9a:15:20:51:1a:50:
                    61:85:82:82:9d:39:41:c4:75
                Exponent: 65537 (0x10001)
        X509v3 extensions:
            X509v3 Basic Constraints: 
                CA:FALSE
            Netscape Comment: 
                Easy-RSA Generated Certificate
            X509v3 Subject Key Identifier: 
                E3:0A:00:8B:A4:56:48:5B:26:01:91:66:8B:58:6B:7F:86:2C:D0:20
            X509v3 Authority Key Identifier: 
                keyid:B3:50:E4:12:A0:C6:1A:6F:A9:42:2E:D3:EA:CF:21:10:1B:0C:8E:FC
                DirName:/C=CN/ST=HB/L=WH/O=HUST/OU=CS/CN=lichenggui/name=lichenggui/emailAddress=lichenggui@routon.com
                serial:A6:A6:75:FA:F6:47:F8:98

            X509v3 Extended Key Usage: 
                TLS Web Client Authentication
            X509v3 Key Usage: 
                Digital Signature
    Signature Algorithm: sha1WithRSAEncryption
         70:ca:5a:9e:b3:ec:d5:36:b1:b3:f1:d5:86:b6:49:03:6f:66:
         a4:c3:f5:21:1f:49:15:cb:fa:5c:8f:9d:45:c5:1b:78:98:5c:
         ab:40:39:70:5c:e0:ab:66:4c:2b:d5:33:45:e7:ce:87:36:c0:
         05:e6:4a:c3:0d:19:26:54:cc:21:70:ea:fc:d4:c2:d6:0e:4b:
         a5:02:97:74:13:b8:c2:ed:f3:d5:cb:d4:74:18:9a:49:a6:a4:
         5c:c4:e2:a3:a9:7e:7f:16:d6:ec:2e:f9:97:64:31:84:cb:b0:
         08:ed:c3:a5:8e:5b:b9:e6:c8:d9:41:8b:c0:1f:dd:53:bc:b9:
         30:dc
-----BEGIN CERTIFICATE-----
MIID8TCCA1qgAwIBAgIBETANBgkqhkiG9w0BAQUFADCBkzELMAkGA1UEBhMCQ04x
CzAJBgNVBAgTAkhCMQswCQYDVQQHEwJXSDENMAsGA1UEChMESFVTVDELMAkGA1UE
CxMCQ1MxEzARBgNVBAMTCmxpY2hlbmdndWkxEzARBgNVBCkTCmxpY2hlbmdndWkx
JDAiBgkqhkiG9w0BCQEWFWxpY2hlbmdndWlAcm91dG9uLmNvbTAeFw0xNDA5MjYw
ODMzMjVaFw0yNDA5MjMwODMzMjVaMIGaMQswCQYDVQQGEwJDTjELMAkGA1UECBMC
SEIxCzAJBgNVBAcTAldIMQ0wCwYDVQQKEwRIVVNUMREwDwYDVQQLEwhjaGFuZ2Vt
ZTEVMBMGA1UEAxQMeXVhbmppYW55ZV9qMRUwEwYDVQQpFAx5dWFuamlhbnllX2ox
ITAfBgkqhkiG9w0BCQEWEnl1YW5qaWFueWVAMTI2LmNvbTCBnzANBgkqhkiG9w0B
AQEFAAOBjQAwgYkCgYEAz5YHuYeXCnR55c8Gqa/kdEsGcH58u9cpOQLEp0Ks91DP
RNmqnGiTHZge/5IvoU5yn8D1BrPJgEWOUpzFwwCKpjI1wTHBucPAwRrnDvPPizGO
9aUc7x+unts/MyWUuOLrejeqOHcly0B9UWg9fIlTrAeaFSBRGlBhhYKCnTlBxHUC
AwEAAaOCAUowggFGMAkGA1UdEwQCMAAwLQYJYIZIAYb4QgENBCAWHkVhc3ktUlNB
IEdlbmVyYXRlZCBDZXJ0aWZpY2F0ZTAdBgNVHQ4EFgQU4woAi6RWSFsmAZFmi1hr
f4Ys0CAwgcgGA1UdIwSBwDCBvYAUs1DkEqDGGm+pQi7T6s8hEBsMjvyhgZmkgZYw
gZMxCzAJBgNVBAYTAkNOMQswCQYDVQQIEwJIQjELMAkGA1UEBxMCV0gxDTALBgNV
BAoTBEhVU1QxCzAJBgNVBAsTAkNTMRMwEQYDVQQDEwpsaWNoZW5nZ3VpMRMwEQYD
VQQpEwpsaWNoZW5nZ3VpMSQwIgYJKoZIhvcNAQkBFhVsaWNoZW5nZ3VpQHJvdXRv
bi5jb22CCQCmpnX69kf4mDATBgNVHSUEDDAKBggrBgEFBQcDAjALBgNVHQ8EBAMC
B4AwDQYJKoZIhvcNAQEFBQADgYEAcMpanrPs1Taxs/HVhrZJA29mpMP1IR9JFcv6
XI+dRcUbeJhcq0A5cFzgq2ZMK9UzRefOhzbABeZKww0ZJlTMIXDq/NTC1g5LpQKX
dBO4wu3z1cvUdBiaSaakXMTio6l+fxbW7C75l2QxhMuwCO3DpY5buebI2UGLwB/d
U7y5MNw=
-----END CERTIFICATE-----
