Certificate:
    Data:
        Version: 3 (0x2)
        Serial Number: 18 (0x12)
    Signature Algorithm: sha1WithRSAEncryption
        Issuer: C=CN, ST=HB, L=WH, O=HUST, OU=CS, CN=lichenggui/name=lichenggui/emailAddress=lichenggui@routon.com
        Validity
            Not Before: Sep 26 08:40:12 2014 GMT
            Not After : Sep 23 08:40:12 2024 GMT
        Subject: C=CN, ST=HB, L=WH, O=HUST, OU=changeme, CN=lichenggui_home/name=lichenggui_home/emailAddress=yuanjianye@126.com
        Subject Public Key Info:
            Public Key Algorithm: rsaEncryption
                Public-Key: (1024 bit)
                Modulus:
                    00:a3:d0:7a:72:fc:38:4d:c1:29:6b:e2:8c:5b:9b:
                    7a:55:1e:94:28:7b:0c:1d:65:32:58:68:5c:89:bd:
                    60:4c:42:a6:77:d0:40:f6:4d:b8:01:c2:39:a8:f6:
                    b9:47:78:6e:1d:6f:91:3c:65:ff:da:ff:3b:c1:fb:
                    e6:1b:4a:a1:66:0a:62:ba:7a:92:33:78:ec:59:86:
                    75:e2:1d:b5:d5:e9:f9:13:09:89:75:f8:ac:bf:c4:
                    fc:71:1c:3f:3c:6a:ec:60:7c:84:e0:4a:c5:88:bf:
                    e3:bf:49:fb:59:b4:d0:40:b6:6c:c6:09:31:58:cd:
                    78:8a:df:9e:2f:51:e3:a7:4b
                Exponent: 65537 (0x10001)
        X509v3 extensions:
            X509v3 Basic Constraints: 
                CA:FALSE
            Netscape Comment: 
                Easy-RSA Generated Certificate
            X509v3 Subject Key Identifier: 
                24:AF:98:51:6B:FB:46:EA:53:8D:42:81:8A:47:86:C8:24:D8:8C:D1
            X509v3 Authority Key Identifier: 
                keyid:B3:50:E4:12:A0:C6:1A:6F:A9:42:2E:D3:EA:CF:21:10:1B:0C:8E:FC
                DirName:/C=CN/ST=HB/L=WH/O=HUST/OU=CS/CN=lichenggui/name=lichenggui/emailAddress=lichenggui@routon.com
                serial:A6:A6:75:FA:F6:47:F8:98

            X509v3 Extended Key Usage: 
                TLS Web Client Authentication
            X509v3 Key Usage: 
                Digital Signature
    Signature Algorithm: sha1WithRSAEncryption
         cd:f6:8c:25:28:55:54:73:c6:1b:01:b4:3e:fc:d3:31:72:b2:
         87:ef:82:48:f3:42:3d:b9:2c:3e:0a:91:11:96:f1:20:cd:cf:
         69:a3:13:92:b4:81:2e:ef:8b:90:b4:c2:69:8d:a0:fd:16:97:
         17:8b:cd:74:7c:07:1f:00:9c:01:65:45:70:6a:ec:19:c2:ca:
         05:f0:fb:b3:aa:1d:67:a2:85:ed:d9:77:b0:ce:0e:bd:c6:12:
         16:9c:40:b6:37:38:b2:1b:97:38:62:68:06:ce:ec:4e:3d:6f:
         4a:11:44:fa:4a:b6:c7:49:0c:79:0e:15:91:89:89:52:13:3b:
         d6:d1
-----BEGIN CERTIFICATE-----
MIID9zCCA2CgAwIBAgIBEjANBgkqhkiG9w0BAQUFADCBkzELMAkGA1UEBhMCQ04x
CzAJBgNVBAgTAkhCMQswCQYDVQQHEwJXSDENMAsGA1UEChMESFVTVDELMAkGA1UE
CxMCQ1MxEzARBgNVBAMTCmxpY2hlbmdndWkxEzARBgNVBCkTCmxpY2hlbmdndWkx
JDAiBgkqhkiG9w0BCQEWFWxpY2hlbmdndWlAcm91dG9uLmNvbTAeFw0xNDA5MjYw
ODQwMTJaFw0yNDA5MjMwODQwMTJaMIGgMQswCQYDVQQGEwJDTjELMAkGA1UECBMC
SEIxCzAJBgNVBAcTAldIMQ0wCwYDVQQKEwRIVVNUMREwDwYDVQQLEwhjaGFuZ2Vt
ZTEYMBYGA1UEAxQPbGljaGVuZ2d1aV9ob21lMRgwFgYDVQQpFA9saWNoZW5nZ3Vp
X2hvbWUxITAfBgkqhkiG9w0BCQEWEnl1YW5qaWFueWVAMTI2LmNvbTCBnzANBgkq
hkiG9w0BAQEFAAOBjQAwgYkCgYEAo9B6cvw4TcEpa+KMW5t6VR6UKHsMHWUyWGhc
ib1gTEKmd9BA9k24AcI5qPa5R3huHW+RPGX/2v87wfvmG0qhZgpiunqSM3jsWYZ1
4h211en5EwmJdfisv8T8cRw/PGrsYHyE4ErFiL/jv0n7WbTQQLZsxgkxWM14it+e
L1Hjp0sCAwEAAaOCAUowggFGMAkGA1UdEwQCMAAwLQYJYIZIAYb4QgENBCAWHkVh
c3ktUlNBIEdlbmVyYXRlZCBDZXJ0aWZpY2F0ZTAdBgNVHQ4EFgQUJK+YUWv7RupT
jUKBikeGyCTYjNEwgcgGA1UdIwSBwDCBvYAUs1DkEqDGGm+pQi7T6s8hEBsMjvyh
gZmkgZYwgZMxCzAJBgNVBAYTAkNOMQswCQYDVQQIEwJIQjELMAkGA1UEBxMCV0gx
DTALBgNVBAoTBEhVU1QxCzAJBgNVBAsTAkNTMRMwEQYDVQQDEwpsaWNoZW5nZ3Vp
MRMwEQYDVQQpEwpsaWNoZW5nZ3VpMSQwIgYJKoZIhvcNAQkBFhVsaWNoZW5nZ3Vp
QHJvdXRvbi5jb22CCQCmpnX69kf4mDATBgNVHSUEDDAKBggrBgEFBQcDAjALBgNV
HQ8EBAMCB4AwDQYJKoZIhvcNAQEFBQADgYEAzfaMJShVVHPGGwG0PvzTMXKyh++C
SPNCPbksPgqREZbxIM3PaaMTkrSBLu+LkLTCaY2g/RaXF4vNdHwHHwCcAWVFcGrs
GcLKBfD7s6odZ6KF7dl3sM4OvcYSFpxAtjc4shuXOGJoBs7sTj1vShFE+kq2x0kM
eQ4VkYmJUhM71tE=
-----END CERTIFICATE-----
