Certificate:
    Data:
        Version: 3 (0x2)
        Serial Number: 19 (0x13)
    Signature Algorithm: sha1WithRSAEncryption
        Issuer: C=CN, ST=HB, L=WH, O=HUST, OU=CS, CN=lichenggui/name=lichenggui/emailAddress=lichenggui@routon.com
        Validity
            Not Before: Apr 28 02:09:12 2015 GMT
            Not After : Apr 25 02:09:12 2025 GMT
        Subject: C=CN, ST=HB, L=WH, O=HUST, OU=changeme, CN=wuxictc/name=wuxictc/emailAddress=yuanjianye@126.com
        Subject Public Key Info:
            Public Key Algorithm: rsaEncryption
                Public-Key: (1024 bit)
                Modulus:
                    00:df:3f:5c:64:d0:85:bf:63:c0:94:e8:bf:a5:0a:
                    4b:fa:05:c5:fe:69:49:e4:fe:7c:54:e0:3e:36:96:
                    9e:92:02:19:53:3c:7f:37:0a:15:9b:c9:c0:45:e2:
                    58:dd:fb:ab:a0:5a:68:3c:c0:f5:7b:bd:07:f8:3d:
                    c0:b7:f2:a5:ce:4c:6a:90:cb:e9:f3:49:cc:37:0e:
                    0a:ff:47:b3:32:5d:c5:13:d6:d7:7e:8e:a0:39:49:
                    54:ac:e0:44:29:fa:9b:67:da:87:11:fe:e3:a3:a1:
                    36:bc:2c:c8:08:e4:6f:06:4c:34:48:67:72:ac:6d:
                    ca:e7:4e:53:1b:5c:e9:b2:a5
                Exponent: 65537 (0x10001)
        X509v3 extensions:
            X509v3 Basic Constraints: 
                CA:FALSE
            Netscape Comment: 
                Easy-RSA Generated Certificate
            X509v3 Subject Key Identifier: 
                35:3C:B6:1E:99:FA:50:E8:8A:34:4C:3A:D5:DC:30:22:AF:9E:09:84
            X509v3 Authority Key Identifier: 
                keyid:B3:50:E4:12:A0:C6:1A:6F:A9:42:2E:D3:EA:CF:21:10:1B:0C:8E:FC
                DirName:/C=CN/ST=HB/L=WH/O=HUST/OU=CS/CN=lichenggui/name=lichenggui/emailAddress=lichenggui@routon.com
                serial:A6:A6:75:FA:F6:47:F8:98

            X509v3 Extended Key Usage: 
                TLS Web Client Authentication
            X509v3 Key Usage: 
                Digital Signature
    Signature Algorithm: sha1WithRSAEncryption
         27:b4:d0:b9:80:a2:52:34:ea:18:01:c4:91:4b:db:55:43:d7:
         06:83:0a:a3:62:c2:7c:6d:82:fe:b1:ce:79:a6:28:7b:39:90:
         9a:09:34:5f:b4:e2:57:a2:2c:6a:32:67:c0:8a:29:c9:d0:43:
         a0:f7:9e:8b:0f:d0:e2:d3:23:4d:cd:28:81:ab:40:c4:e0:25:
         58:f3:06:6b:36:fb:40:d1:0b:40:ac:a5:df:f8:01:5e:1d:b8:
         70:9a:d2:2a:94:24:a6:20:64:3f:14:f3:e1:1e:13:31:eb:ae:
         bb:f0:fc:16:18:b8:0a:b1:fb:6e:77:ab:fe:93:08:81:2c:65:
         68:b2
-----BEGIN CERTIFICATE-----
MIID5zCCA1CgAwIBAgIBEzANBgkqhkiG9w0BAQUFADCBkzELMAkGA1UEBhMCQ04x
CzAJBgNVBAgTAkhCMQswCQYDVQQHEwJXSDENMAsGA1UEChMESFVTVDELMAkGA1UE
CxMCQ1MxEzARBgNVBAMTCmxpY2hlbmdndWkxEzARBgNVBCkTCmxpY2hlbmdndWkx
JDAiBgkqhkiG9w0BCQEWFWxpY2hlbmdndWlAcm91dG9uLmNvbTAeFw0xNTA0Mjgw
MjA5MTJaFw0yNTA0MjUwMjA5MTJaMIGQMQswCQYDVQQGEwJDTjELMAkGA1UECBMC
SEIxCzAJBgNVBAcTAldIMQ0wCwYDVQQKEwRIVVNUMREwDwYDVQQLEwhjaGFuZ2Vt
ZTEQMA4GA1UEAxMHd3V4aWN0YzEQMA4GA1UEKRMHd3V4aWN0YzEhMB8GCSqGSIb3
DQEJARYSeXVhbmppYW55ZUAxMjYuY29tMIGfMA0GCSqGSIb3DQEBAQUAA4GNADCB
iQKBgQDfP1xk0IW/Y8CU6L+lCkv6BcX+aUnk/nxU4D42lp6SAhlTPH83ChWbycBF
4ljd+6ugWmg8wPV7vQf4PcC38qXOTGqQy+nzScw3Dgr/R7MyXcUT1td+jqA5SVSs
4EQp+ptn2ocR/uOjoTa8LMgI5G8GTDRIZ3KsbcrnTlMbXOmypQIDAQABo4IBSjCC
AUYwCQYDVR0TBAIwADAtBglghkgBhvhCAQ0EIBYeRWFzeS1SU0EgR2VuZXJhdGVk
IENlcnRpZmljYXRlMB0GA1UdDgQWBBQ1PLYemfpQ6Io0TDrV3DAir54JhDCByAYD
VR0jBIHAMIG9gBSzUOQSoMYab6lCLtPqzyEQGwyO/KGBmaSBljCBkzELMAkGA1UE
BhMCQ04xCzAJBgNVBAgTAkhCMQswCQYDVQQHEwJXSDENMAsGA1UEChMESFVTVDEL
MAkGA1UECxMCQ1MxEzARBgNVBAMTCmxpY2hlbmdndWkxEzARBgNVBCkTCmxpY2hl
bmdndWkxJDAiBgkqhkiG9w0BCQEWFWxpY2hlbmdndWlAcm91dG9uLmNvbYIJAKam
dfr2R/iYMBMGA1UdJQQMMAoGCCsGAQUFBwMCMAsGA1UdDwQEAwIHgDANBgkqhkiG
9w0BAQUFAAOBgQAntNC5gKJSNOoYAcSRS9tVQ9cGgwqjYsJ8bYL+sc55pih7OZCa
CTRftOJXoixqMmfAiinJ0EOg956LD9Di0yNNzSiBq0DE4CVY8wZrNvtA0QtArKXf
+AFeHbhwmtIqlCSmIGQ/FPPhHhMx66678PwWGLgKsftud6v+kwiBLGVosg==
-----END CERTIFICATE-----
