Certificate:
    Data:
        Version: 3 (0x2)
        Serial Number: 10 (0xa)
    Signature Algorithm: sha1WithRSAEncryption
        Issuer: C=CN, ST=HB, L=WH, O=HUST, OU=CS, CN=lichenggui/name=lichenggui/emailAddress=lichenggui@routon.com
        Validity
            Not Before: Sep 26 03:13:46 2014 GMT
            Not After : Sep 23 03:13:46 2024 GMT
        Subject: C=CN, ST=HB, L=WH, O=HUST, OU=th, CN=th/name=th/emailAddress=yuanjianye@126.com
        Subject Public Key Info:
            Public Key Algorithm: rsaEncryption
                Public-Key: (1024 bit)
                Modulus:
                    00:ae:9b:2e:c1:5d:55:d2:b4:80:40:eb:8c:62:55:
                    c7:ae:f1:28:0e:6b:2e:d3:23:f3:2f:09:79:5b:c7:
                    9b:00:2a:9d:2b:36:43:dd:7c:45:70:b2:d8:d2:8a:
                    25:90:0c:c1:c4:a9:d3:84:35:5d:2c:1a:52:49:56:
                    8b:47:be:da:58:63:b4:e4:fa:5f:32:86:ef:32:6e:
                    6e:c0:ff:d1:c1:f7:47:15:db:00:69:7e:c0:53:88:
                    86:f7:7c:db:4d:04:2b:f0:2e:98:d0:fd:2c:6b:3d:
                    83:9e:3b:5f:a5:61:3a:c8:bc:21:12:6c:90:67:a0:
                    e2:c1:2e:b4:5b:8a:c8:f2:3b
                Exponent: 65537 (0x10001)
        X509v3 extensions:
            X509v3 Basic Constraints: 
                CA:FALSE
            Netscape Comment: 
                Easy-RSA Generated Certificate
            X509v3 Subject Key Identifier: 
                A5:62:F3:5C:2F:EC:4B:7E:2B:F9:27:1D:95:81:54:34:3F:3A:B4:BF
            X509v3 Authority Key Identifier: 
                keyid:B3:50:E4:12:A0:C6:1A:6F:A9:42:2E:D3:EA:CF:21:10:1B:0C:8E:FC
                DirName:/C=CN/ST=HB/L=WH/O=HUST/OU=CS/CN=lichenggui/name=lichenggui/emailAddress=lichenggui@routon.com
                serial:A6:A6:75:FA:F6:47:F8:98

            X509v3 Extended Key Usage: 
                TLS Web Client Authentication
            X509v3 Key Usage: 
                Digital Signature
    Signature Algorithm: sha1WithRSAEncryption
         b2:da:85:83:f7:fb:13:51:91:ca:db:e7:1c:cd:09:6d:c5:bc:
         38:c1:db:df:05:4e:09:1d:15:a2:0d:44:64:5e:64:fa:c4:41:
         38:ee:b3:73:91:d6:20:01:79:23:8c:04:bd:57:28:7f:d8:de:
         c5:73:da:75:b6:c0:45:9d:c2:7f:a0:e6:c8:71:64:c6:1f:a4:
         29:4a:b1:e7:b5:47:3e:ba:80:c5:24:f2:c7:75:eb:f6:7c:63:
         a7:20:be:19:15:ab:89:bb:6c:a8:37:f3:08:d4:db:4e:dc:7e:
         f1:f4:70:f6:ed:05:5d:ff:de:9c:dd:cf:ed:05:0f:16:45:7b:
         70:b3
-----BEGIN CERTIFICATE-----
MIID1zCCA0CgAwIBAgIBCjANBgkqhkiG9w0BAQUFADCBkzELMAkGA1UEBhMCQ04x
CzAJBgNVBAgTAkhCMQswCQYDVQQHEwJXSDENMAsGA1UEChMESFVTVDELMAkGA1UE
CxMCQ1MxEzARBgNVBAMTCmxpY2hlbmdndWkxEzARBgNVBCkTCmxpY2hlbmdndWkx
JDAiBgkqhkiG9w0BCQEWFWxpY2hlbmdndWlAcm91dG9uLmNvbTAeFw0xNDA5MjYw
MzEzNDZaFw0yNDA5MjMwMzEzNDZaMIGAMQswCQYDVQQGEwJDTjELMAkGA1UECBMC
SEIxCzAJBgNVBAcTAldIMQ0wCwYDVQQKEwRIVVNUMQswCQYDVQQLEwJ0aDELMAkG
A1UEAxMCdGgxCzAJBgNVBCkTAnRoMSEwHwYJKoZIhvcNAQkBFhJ5dWFuamlhbnll
QDEyNi5jb20wgZ8wDQYJKoZIhvcNAQEBBQADgY0AMIGJAoGBAK6bLsFdVdK0gEDr
jGJVx67xKA5rLtMj8y8JeVvHmwAqnSs2Q918RXCy2NKKJZAMwcSp04Q1XSwaUklW
i0e+2lhjtOT6XzKG7zJubsD/0cH3RxXbAGl+wFOIhvd8200EK/AumND9LGs9g547
X6VhOsi8IRJskGeg4sEutFuKyPI7AgMBAAGjggFKMIIBRjAJBgNVHRMEAjAAMC0G
CWCGSAGG+EIBDQQgFh5FYXN5LVJTQSBHZW5lcmF0ZWQgQ2VydGlmaWNhdGUwHQYD
VR0OBBYEFKVi81wv7Et+K/knHZWBVDQ/OrS/MIHIBgNVHSMEgcAwgb2AFLNQ5BKg
xhpvqUIu0+rPIRAbDI78oYGZpIGWMIGTMQswCQYDVQQGEwJDTjELMAkGA1UECBMC
SEIxCzAJBgNVBAcTAldIMQ0wCwYDVQQKEwRIVVNUMQswCQYDVQQLEwJDUzETMBEG
A1UEAxMKbGljaGVuZ2d1aTETMBEGA1UEKRMKbGljaGVuZ2d1aTEkMCIGCSqGSIb3
DQEJARYVbGljaGVuZ2d1aUByb3V0b24uY29tggkApqZ1+vZH+JgwEwYDVR0lBAww
CgYIKwYBBQUHAwIwCwYDVR0PBAQDAgeAMA0GCSqGSIb3DQEBBQUAA4GBALLahYP3
+xNRkcrb5xzNCW3FvDjB298FTgkdFaINRGReZPrEQTjus3OR1iABeSOMBL1XKH/Y
3sVz2nW2wEWdwn+g5shxZMYfpClKsee1Rz66gMUk8sd16/Z8Y6cgvhkVq4m7bKg3
8wjU207cfvH0cPbtBV3/3pzdz+0FDxZFe3Cz
-----END CERTIFICATE-----
