Certificate:
    Data:
        Version: 3 (0x2)
        Serial Number: 16 (0x10)
    Signature Algorithm: sha1WithRSAEncryption
        Issuer: C=CN, ST=HB, L=WH, O=HUST, OU=CS, CN=lichenggui/name=lichenggui/emailAddress=lichenggui@routon.com
        Validity
            Not Before: Sep 26 08:30:56 2014 GMT
            Not After : Sep 23 08:30:56 2024 GMT
        Subject: C=CN, ST=HB, L=WH, O=HUST, OU=changeme, CN=tongjia/name=changeme/emailAddress=yuanjianye@126.com
        Subject Public Key Info:
            Public Key Algorithm: rsaEncryption
                Public-Key: (1024 bit)
                Modulus:
                    00:c4:d0:6e:c9:a8:de:9b:3f:f4:a4:1b:56:87:83:
                    63:37:fc:00:66:35:d0:d1:5f:e8:90:05:7d:84:40:
                    35:f8:3e:73:97:86:e7:63:05:69:6d:a7:b5:b5:47:
                    66:b0:f3:a5:3a:06:f1:40:93:56:aa:23:99:ee:0c:
                    18:09:e4:96:f4:a1:98:53:a4:06:7f:3c:af:19:1a:
                    5c:53:27:48:4c:59:51:9a:9e:30:33:d2:63:86:ab:
                    ef:09:d2:53:90:bc:e7:d8:67:e5:5c:10:47:46:05:
                    c4:c5:48:59:c8:aa:95:85:8e:71:81:28:4f:13:f8:
                    19:45:3e:bd:ab:1d:6d:4a:2f
                Exponent: 65537 (0x10001)
        X509v3 extensions:
            X509v3 Basic Constraints: 
                CA:FALSE
            Netscape Comment: 
                Easy-RSA Generated Certificate
            X509v3 Subject Key Identifier: 
                61:87:68:A4:A0:3C:B8:72:C6:B9:98:91:98:F4:B8:04:36:61:4D:A7
            X509v3 Authority Key Identifier: 
                keyid:B3:50:E4:12:A0:C6:1A:6F:A9:42:2E:D3:EA:CF:21:10:1B:0C:8E:FC
                DirName:/C=CN/ST=HB/L=WH/O=HUST/OU=CS/CN=lichenggui/name=lichenggui/emailAddress=lichenggui@routon.com
                serial:A6:A6:75:FA:F6:47:F8:98

            X509v3 Extended Key Usage: 
                TLS Web Client Authentication
            X509v3 Key Usage: 
                Digital Signature
    Signature Algorithm: sha1WithRSAEncryption
         6d:5f:1c:5a:11:63:d4:32:a6:82:a7:58:be:77:4d:90:39:5f:
         b3:36:0c:3a:09:b7:f0:50:f1:8a:ae:6f:cf:ff:53:03:c2:10:
         ca:72:d5:a0:15:26:62:99:8e:f9:1f:2a:4e:7d:2e:ab:24:e7:
         d4:a4:5f:92:c0:82:c6:c4:b4:a5:e4:7d:df:44:72:ee:13:bb:
         97:ce:b6:63:34:f8:af:17:e8:6b:6d:48:71:e7:7c:77:81:74:
         b7:16:49:ec:b5:2e:0b:38:89:23:72:5b:7d:91:1a:87:1b:ec:
         52:cc:fa:3f:1b:df:60:b0:b5:f3:e7:a9:90:49:ae:77:eb:5f:
         af:2d
-----BEGIN CERTIFICATE-----
MIID6DCCA1GgAwIBAgIBEDANBgkqhkiG9w0BAQUFADCBkzELMAkGA1UEBhMCQ04x
CzAJBgNVBAgTAkhCMQswCQYDVQQHEwJXSDENMAsGA1UEChMESFVTVDELMAkGA1UE
CxMCQ1MxEzARBgNVBAMTCmxpY2hlbmdndWkxEzARBgNVBCkTCmxpY2hlbmdndWkx
JDAiBgkqhkiG9w0BCQEWFWxpY2hlbmdndWlAcm91dG9uLmNvbTAeFw0xNDA5MjYw
ODMwNTZaFw0yNDA5MjMwODMwNTZaMIGRMQswCQYDVQQGEwJDTjELMAkGA1UECBMC
SEIxCzAJBgNVBAcTAldIMQ0wCwYDVQQKEwRIVVNUMREwDwYDVQQLEwhjaGFuZ2Vt
ZTEQMA4GA1UEAxMHdG9uZ2ppYTERMA8GA1UEKRMIY2hhbmdlbWUxITAfBgkqhkiG
9w0BCQEWEnl1YW5qaWFueWVAMTI2LmNvbTCBnzANBgkqhkiG9w0BAQEFAAOBjQAw
gYkCgYEAxNBuyajemz/0pBtWh4NjN/wAZjXQ0V/okAV9hEA1+D5zl4bnYwVpbae1
tUdmsPOlOgbxQJNWqiOZ7gwYCeSW9KGYU6QGfzyvGRpcUydITFlRmp4wM9Jjhqvv
CdJTkLzn2GflXBBHRgXExUhZyKqVhY5xgShPE/gZRT69qx1tSi8CAwEAAaOCAUow
ggFGMAkGA1UdEwQCMAAwLQYJYIZIAYb4QgENBCAWHkVhc3ktUlNBIEdlbmVyYXRl
ZCBDZXJ0aWZpY2F0ZTAdBgNVHQ4EFgQUYYdopKA8uHLGuZiRmPS4BDZhTacwgcgG
A1UdIwSBwDCBvYAUs1DkEqDGGm+pQi7T6s8hEBsMjvyhgZmkgZYwgZMxCzAJBgNV
BAYTAkNOMQswCQYDVQQIEwJIQjELMAkGA1UEBxMCV0gxDTALBgNVBAoTBEhVU1Qx
CzAJBgNVBAsTAkNTMRMwEQYDVQQDEwpsaWNoZW5nZ3VpMRMwEQYDVQQpEwpsaWNo
ZW5nZ3VpMSQwIgYJKoZIhvcNAQkBFhVsaWNoZW5nZ3VpQHJvdXRvbi5jb22CCQCm
pnX69kf4mDATBgNVHSUEDDAKBggrBgEFBQcDAjALBgNVHQ8EBAMCB4AwDQYJKoZI
hvcNAQEFBQADgYEAbV8cWhFj1DKmgqdYvndNkDlfszYMOgm38FDxiq5vz/9TA8IQ
ynLVoBUmYpmO+R8qTn0uqyTn1KRfksCCxsS0peR930Ry7hO7l862YzT4rxfoa21I
ced8d4F0txZJ7LUuCziJI3JbfZEahxvsUsz6PxvfYLC18+epkEmud+tfry0=
-----END CERTIFICATE-----
