Certificate:
    Data:
        Version: 3 (0x2)
        Serial Number: 6 (0x6)
    Signature Algorithm: sha1WithRSAEncryption
        Issuer: C=CN, ST=HB, L=WH, O=HUST, OU=CS, CN=lichenggui/name=lichenggui/emailAddress=lichenggui@routon.com
        Validity
            Not Before: Sep 15 05:35:51 2014 GMT
            Not After : Sep 12 05:35:51 2024 GMT
        Subject: C=CN, ST=HB, L=WH, O=HUST, OU=yuanjianye_d, CN=yuanjianye_d/name=yuanjianye_d/emailAddress=yuanjianye@126.com
        Subject Public Key Info:
            Public Key Algorithm: rsaEncryption
                Public-Key: (1024 bit)
                Modulus:
                    00:d9:d3:dc:6f:29:15:14:b8:f3:16:29:80:d6:da:
                    d5:ec:e7:df:08:5e:6d:4c:3c:f9:6c:b9:5a:b5:10:
                    ef:a5:2a:96:c2:ef:6a:59:e8:41:9a:d5:99:53:5c:
                    60:78:2e:c5:a0:c7:d9:1b:8e:66:28:7a:2d:6d:ac:
                    5e:71:8a:5a:31:06:7b:bc:5d:85:c3:5f:7c:f0:ea:
                    2d:ca:c3:9f:e6:cd:4b:76:ca:e0:8b:c0:31:dd:95:
                    18:ff:fc:ed:7c:d9:d8:e1:5b:54:5b:67:8f:06:8a:
                    fc:92:39:ea:08:b9:bd:4e:94:d1:ff:0f:fc:ba:1e:
                    53:2a:5d:76:77:94:ea:a0:77
                Exponent: 65537 (0x10001)
        X509v3 extensions:
            X509v3 Basic Constraints: 
                CA:FALSE
            Netscape Comment: 
                Easy-RSA Generated Certificate
            X509v3 Subject Key Identifier: 
                AA:9C:55:6C:42:A2:90:6A:2D:84:8B:E8:72:2B:34:15:8F:B3:43:AA
            X509v3 Authority Key Identifier: 
                keyid:B3:50:E4:12:A0:C6:1A:6F:A9:42:2E:D3:EA:CF:21:10:1B:0C:8E:FC
                DirName:/C=CN/ST=HB/L=WH/O=HUST/OU=CS/CN=lichenggui/name=lichenggui/emailAddress=lichenggui@routon.com
                serial:A6:A6:75:FA:F6:47:F8:98

            X509v3 Extended Key Usage: 
                TLS Web Client Authentication
            X509v3 Key Usage: 
                Digital Signature
    Signature Algorithm: sha1WithRSAEncryption
         3c:8f:54:0d:ed:77:c8:9e:5c:8e:2b:b4:b2:1a:1b:12:33:09:
         0d:61:07:9b:1e:f7:a3:e4:8b:f4:1a:89:ac:5d:19:b5:cd:d7:
         76:3e:2c:58:0b:a5:81:74:18:1c:19:6f:9f:91:f5:d8:ed:e1:
         40:9a:a1:0f:44:af:eb:a3:5a:5b:74:c2:8e:28:bb:89:14:66:
         15:4b:b0:dc:7b:91:df:eb:d8:d3:fb:21:50:fb:47:db:c8:6b:
         67:b8:a5:5d:ce:87:b2:99:e5:e3:cc:59:d8:cc:ab:78:25:28:
         b3:2d:64:fa:39:6d:57:5e:bd:de:87:19:70:c2:7d:78:62:ed:
         09:9e
-----BEGIN CERTIFICATE-----
MIID9TCCA16gAwIBAgIBBjANBgkqhkiG9w0BAQUFADCBkzELMAkGA1UEBhMCQ04x
CzAJBgNVBAgTAkhCMQswCQYDVQQHEwJXSDENMAsGA1UEChMESFVTVDELMAkGA1UE
CxMCQ1MxEzARBgNVBAMTCmxpY2hlbmdndWkxEzARBgNVBCkTCmxpY2hlbmdndWkx
JDAiBgkqhkiG9w0BCQEWFWxpY2hlbmdndWlAcm91dG9uLmNvbTAeFw0xNDA5MTUw
NTM1NTFaFw0yNDA5MTIwNTM1NTFaMIGeMQswCQYDVQQGEwJDTjELMAkGA1UECBMC
SEIxCzAJBgNVBAcTAldIMQ0wCwYDVQQKEwRIVVNUMRUwEwYDVQQLFAx5dWFuamlh
bnllX2QxFTATBgNVBAMUDHl1YW5qaWFueWVfZDEVMBMGA1UEKRQMeXVhbmppYW55
ZV9kMSEwHwYJKoZIhvcNAQkBFhJ5dWFuamlhbnllQDEyNi5jb20wgZ8wDQYJKoZI
hvcNAQEBBQADgY0AMIGJAoGBANnT3G8pFRS48xYpgNba1ezn3whebUw8+Wy5WrUQ
76UqlsLvalnoQZrVmVNcYHguxaDH2RuOZih6LW2sXnGKWjEGe7xdhcNffPDqLcrD
n+bNS3bK4IvAMd2VGP/87XzZ2OFbVFtnjwaK/JI56gi5vU6U0f8P/LoeUypddneU
6qB3AgMBAAGjggFKMIIBRjAJBgNVHRMEAjAAMC0GCWCGSAGG+EIBDQQgFh5FYXN5
LVJTQSBHZW5lcmF0ZWQgQ2VydGlmaWNhdGUwHQYDVR0OBBYEFKqcVWxCopBqLYSL
6HIrNBWPs0OqMIHIBgNVHSMEgcAwgb2AFLNQ5BKgxhpvqUIu0+rPIRAbDI78oYGZ
pIGWMIGTMQswCQYDVQQGEwJDTjELMAkGA1UECBMCSEIxCzAJBgNVBAcTAldIMQ0w
CwYDVQQKEwRIVVNUMQswCQYDVQQLEwJDUzETMBEGA1UEAxMKbGljaGVuZ2d1aTET
MBEGA1UEKRMKbGljaGVuZ2d1aTEkMCIGCSqGSIb3DQEJARYVbGljaGVuZ2d1aUBy
b3V0b24uY29tggkApqZ1+vZH+JgwEwYDVR0lBAwwCgYIKwYBBQUHAwIwCwYDVR0P
BAQDAgeAMA0GCSqGSIb3DQEBBQUAA4GBADyPVA3td8ieXI4rtLIaGxIzCQ1hB5se
96Pki/QaiaxdGbXN13Y+LFgLpYF0GBwZb5+R9djt4UCaoQ9Er+ujWlt0wo4ou4kU
ZhVLsNx7kd/r2NP7IVD7R9vIa2e4pV3Oh7KZ5ePMWdjMq3glKLMtZPo5bVdevd6H
GXDCfXhi7Qme
-----END CERTIFICATE-----
