Certificate:
    Data:
        Version: 3 (0x2)
        Serial Number: 8 (0x8)
    Signature Algorithm: sha1WithRSAEncryption
        Issuer: C=CN, ST=HB, L=WH, O=HUST, OU=CS, CN=lichenggui/name=lichenggui/emailAddress=lichenggui@routon.com
        Validity
            Not Before: Sep 15 06:49:44 2014 GMT
            Not After : Sep 12 06:49:44 2024 GMT
        Subject: C=CN, ST=HB, L=WH, O=HUST, OU=yuanjianye_e, CN=yuanjianye_e/name=yuanjianye_e/emailAddress=yuanjianye@126.com
        Subject Public Key Info:
            Public Key Algorithm: rsaEncryption
                Public-Key: (1024 bit)
                Modulus:
                    00:90:c2:50:6f:88:b8:54:0a:b0:1a:a4:23:17:3c:
                    48:c9:65:4b:a9:ff:72:aa:c9:e2:b1:ef:dc:2b:32:
                    64:4b:3f:dd:3a:1c:77:22:87:7c:ec:7c:07:63:9d:
                    09:27:e0:d7:1f:24:af:92:9d:17:8e:01:5e:32:77:
                    82:4d:ba:ba:d8:02:84:f0:d7:3d:12:07:f0:50:25:
                    3f:5b:66:02:0c:51:08:2a:c2:80:b1:7a:b2:78:2d:
                    19:df:0d:79:45:9a:46:c6:3e:14:af:1c:1d:db:43:
                    da:7f:1c:82:a2:0a:4c:a7:b2:10:15:73:26:93:a4:
                    58:b4:92:14:59:89:e2:cc:e5
                Exponent: 65537 (0x10001)
        X509v3 extensions:
            X509v3 Basic Constraints: 
                CA:FALSE
            Netscape Comment: 
                Easy-RSA Generated Certificate
            X509v3 Subject Key Identifier: 
                E4:03:57:AE:52:03:A3:9D:CA:30:11:C8:E8:0E:F2:45:41:D2:A1:72
            X509v3 Authority Key Identifier: 
                keyid:B3:50:E4:12:A0:C6:1A:6F:A9:42:2E:D3:EA:CF:21:10:1B:0C:8E:FC
                DirName:/C=CN/ST=HB/L=WH/O=HUST/OU=CS/CN=lichenggui/name=lichenggui/emailAddress=lichenggui@routon.com
                serial:A6:A6:75:FA:F6:47:F8:98

            X509v3 Extended Key Usage: 
                TLS Web Client Authentication
            X509v3 Key Usage: 
                Digital Signature
    Signature Algorithm: sha1WithRSAEncryption
         1d:aa:b8:ce:85:49:60:f8:42:60:fe:e5:cb:9a:c9:93:96:2c:
         51:e9:cc:4d:a2:57:42:4f:1a:61:3c:35:7a:0d:41:13:ba:0d:
         fd:80:84:45:89:d0:31:26:2d:bc:c1:19:10:c1:b7:45:ad:ee:
         3d:46:71:3a:fa:97:84:96:f0:e0:94:e7:f7:0b:30:d1:a0:81:
         99:41:1e:cd:1a:d9:bb:e0:cf:31:80:7c:30:b4:19:db:27:40:
         e9:e3:17:a8:fe:bf:d6:42:57:a1:1c:b3:f1:66:99:78:00:1b:
         55:a3:f0:7e:16:3a:10:3d:87:87:81:79:f6:30:bc:72:51:23:
         c3:c8
-----BEGIN CERTIFICATE-----
MIID9TCCA16gAwIBAgIBCDANBgkqhkiG9w0BAQUFADCBkzELMAkGA1UEBhMCQ04x
CzAJBgNVBAgTAkhCMQswCQYDVQQHEwJXSDENMAsGA1UEChMESFVTVDELMAkGA1UE
CxMCQ1MxEzARBgNVBAMTCmxpY2hlbmdndWkxEzARBgNVBCkTCmxpY2hlbmdndWkx
JDAiBgkqhkiG9w0BCQEWFWxpY2hlbmdndWlAcm91dG9uLmNvbTAeFw0xNDA5MTUw
NjQ5NDRaFw0yNDA5MTIwNjQ5NDRaMIGeMQswCQYDVQQGEwJDTjELMAkGA1UECBMC
SEIxCzAJBgNVBAcTAldIMQ0wCwYDVQQKEwRIVVNUMRUwEwYDVQQLFAx5dWFuamlh
bnllX2UxFTATBgNVBAMUDHl1YW5qaWFueWVfZTEVMBMGA1UEKRQMeXVhbmppYW55
ZV9lMSEwHwYJKoZIhvcNAQkBFhJ5dWFuamlhbnllQDEyNi5jb20wgZ8wDQYJKoZI
hvcNAQEBBQADgY0AMIGJAoGBAJDCUG+IuFQKsBqkIxc8SMllS6n/cqrJ4rHv3Csy
ZEs/3TocdyKHfOx8B2OdCSfg1x8kr5KdF44BXjJ3gk26utgChPDXPRIH8FAlP1tm
AgxRCCrCgLF6sngtGd8NeUWaRsY+FK8cHdtD2n8cgqIKTKeyEBVzJpOkWLSSFFmJ
4szlAgMBAAGjggFKMIIBRjAJBgNVHRMEAjAAMC0GCWCGSAGG+EIBDQQgFh5FYXN5
LVJTQSBHZW5lcmF0ZWQgQ2VydGlmaWNhdGUwHQYDVR0OBBYEFOQDV65SA6OdyjAR
yOgO8kVB0qFyMIHIBgNVHSMEgcAwgb2AFLNQ5BKgxhpvqUIu0+rPIRAbDI78oYGZ
pIGWMIGTMQswCQYDVQQGEwJDTjELMAkGA1UECBMCSEIxCzAJBgNVBAcTAldIMQ0w
CwYDVQQKEwRIVVNUMQswCQYDVQQLEwJDUzETMBEGA1UEAxMKbGljaGVuZ2d1aTET
MBEGA1UEKRMKbGljaGVuZ2d1aTEkMCIGCSqGSIb3DQEJARYVbGljaGVuZ2d1aUBy
b3V0b24uY29tggkApqZ1+vZH+JgwEwYDVR0lBAwwCgYIKwYBBQUHAwIwCwYDVR0P
BAQDAgeAMA0GCSqGSIb3DQEBBQUAA4GBAB2quM6FSWD4QmD+5cuayZOWLFHpzE2i
V0JPGmE8NXoNQRO6Df2AhEWJ0DEmLbzBGRDBt0Wt7j1GcTr6l4SW8OCU5/cLMNGg
gZlBHs0a2bvgzzGAfDC0GdsnQOnjF6j+v9ZCV6Ecs/FmmXgAG1Wj8H4WOhA9h4eB
efYwvHJRI8PI
-----END CERTIFICATE-----
